ccopy_reg
_reconstructor
p0
(cKicad_action_plugins.save_restore_layout.save_restore_layout
LayoutData
p1
c__builtin__
tuple
p2
(V(kicad_pcb (version 20171130) (host pcbnew "(5.1.9-0-10_14)")\u000a\u000a  (general\u000a    (thickness 1.6)\u000a    (drawings 40)\u000a    (tracks 80)\u000a    (zones 0)\u000a    (modules 3)\u000a    (nets 8)\u000a  )\u000a\u000a  (page A4)\u000a  (layers\u000a    (0 F.Cu signal)\u000a    (31 B.Cu signal)\u000a    (32 B.Adhes user)\u000a    (33 F.Adhes user)\u000a    (34 B.Paste user)\u000a    (35 F.Paste user)\u000a    (36 B.SilkS user)\u000a    (37 F.SilkS user)\u000a    (38 B.Mask user)\u000a    (39 F.Mask user)\u000a    (40 Dwgs.User user)\u000a    (41 Cmts.User user)\u000a    (42 Eco1.User user)\u000a    (43 Eco2.User user)\u000a    (44 Edge.Cuts user)\u000a    (45 Margin user)\u000a    (46 B.CrtYd user)\u000a    (47 F.CrtYd user)\u000a    (48 B.Fab user)\u000a    (49 F.Fab user)\u000a  )\u000a\u000a  (setup\u000a    (last_trace_width 0.25)\u000a    (user_trace_width 0.5)\u000a    (trace_clearance 0.2)\u000a    (zone_clearance 0.2)\u000a    (zone_45_only no)\u000a    (trace_min 0.2)\u000a    (via_size 0.8)\u000a    (via_drill 0.4)\u000a    (via_min_size 0.4)\u000a    (via_min_drill 0.3)\u000a    (uvia_size 0.3)\u000a    (uvia_drill 0.1)\u000a    (uvias_allowed no)\u000a    (uvia_min_size 0.2)\u000a    (uvia_min_drill 0.1)\u000a    (edge_width 0.05)\u000a    (segment_width 0.2)\u000a    (pcb_text_width 0.3)\u000a    (pcb_text_size 1.5 1.5)\u000a    (mod_edge_width 0.12)\u000a    (mod_text_size 1 1)\u000a    (mod_text_width 0.15)\u000a    (pad_size 4 4)\u000a    (pad_drill 4)\u000a    (pad_to_mask_clearance 0)\u000a    (aux_axis_origin 0 0)\u000a    (visible_elements FFFFFF7F)\u000a    (pcbplotparams\u000a      (layerselection 0x010fc_ffffffff)\u000a      (usegerberextensions false)\u000a      (usegerberattributes true)\u000a      (usegerberadvancedattributes true)\u000a      (creategerberjobfile true)\u000a      (excludeedgelayer true)\u000a      (linewidth 0.100000)\u000a      (plotframeref false)\u000a      (viasonmask false)\u000a      (mode 1)\u000a      (useauxorigin false)\u000a      (hpglpennumber 1)\u000a      (hpglpenspeed 20)\u000a      (hpglpendiameter 15.000000)\u000a      (psnegative false)\u000a      (psa4output false)\u000a      (plotreference true)\u000a      (plotvalue true)\u000a      (plotinvisibletext false)\u000a      (padsonsilk false)\u000a      (subtractmaskfromsilk false)\u000a      (outputformat 1)\u000a      (mirror false)\u000a      (drillshape 0)\u000a      (scaleselection 1)\u000a      (outputdirectory ""))\u000a  )\u000a\u000a  (net 0 "")\u000a  (net 1 VCC)\u000a  (net 2 DI)\u000a  (net 3 GND)\u000a  (net 4 DO)\u000a  (net 5 COL)\u000a  (net 6 "Net-(D1-Pad2)")\u000a  (net 7 ROW)\u000a\u000a  (net_class Default "This is the default net class."\u000a    (clearance 0.2)\u000a    (trace_width 0.25)\u000a    (via_dia 0.8)\u000a    (via_drill 0.4)\u000a    (uvia_dia 0.3)\u000a    (uvia_drill 0.1)\u000a    (add_net COL)\u000a    (add_net DI)\u000a    (add_net DO)\u000a    (add_net GND)\u000a    (add_net "Net-(D1-Pad2)")\u000a    (add_net ROW)\u000a    (add_net VCC)\u000a  )\u000a\u000a  (module WingCustomParts:ws2812b-2020-2.0mmx2.0mm (layer F.Cu) (tedit 61480F0C) (tstamp 614F30B9)\u000a    (at -0.3 5.2)\u000a    (path /614F2672/614F2C22)\u000a    (fp_text reference WS1 (at 0 -4.5) (layer F.SilkS)\u000a      (effects (font (size 1 1) (thickness 0.15)))\u000a    )\u000a    (fp_text value WS2812B-2020-JLCPCB (at 0.5 -22) (layer F.Fab) hide\u000a      (effects (font (size 1 1) (thickness 0.15)))\u000a    )\u000a    (fp_line (start -1.265 -0.2) (end 1.265 -0.2) (layer Dwgs.User) (width 0.02))\u000a    (fp_line (start 0.55 -1) (end 0.55 1) (layer Dwgs.User) (width 0.02))\u000a    (fp_line (start 1.265 0.2) (end -1.265 0.2) (layer Dwgs.User) (width 0.02))\u000a    (fp_line (start -1.265 -0.2) (end -1.265 0.2) (layer Dwgs.User) (width 0.02))\u000a    (fp_line (start 1.265 -0.2) (end 1.265 0.2) (layer Dwgs.User) (width 0.02))\u000a    (fp_line (start 0.55 -1) (end -0.55 -1) (layer Dwgs.User) (width 0.02))\u000a    (fp_line (start -0.55 -1) (end -0.55 1) (layer Dwgs.User) (width 0.02))\u000a    (fp_line (start -0.55 1) (end 0.55 1) (layer Dwgs.User) (width 0.02))\u000a    (fp_poly (pts (xy 0.55 1) (xy 0.35 1) (xy 0.35 -1) (xy 0.55 -1)) (layer Dwgs.User) (width 0.02))\u000a    (fp_line (start 1.3 -1.1) (end -1.4 -1.1) (layer F.CrtYd) (width 0.02))\u000a    (fp_line (start -1.4 -1.1) (end -1.4 1.1) (layer F.CrtYd) (width 0.02))\u000a    (fp_line (start -1.4 1.1) (end 1.4 1.1) (layer F.CrtYd) (width 0.02))\u000a    (fp_line (start 1.4 1.1) (end 1.4 -1.1) (layer F.CrtYd) (width 0.02))\u000a    (fp_line (start 1.4 -1.1) (end 1.3 -1.1) (layer F.CrtYd) (width 0.02))\u000a    (pad 4 smd rect (at -0.92 0.56 180) (size 0.7 0.7) (layers F.Cu F.Paste F.Mask)\u000a      (net 1 VCC))\u000a    (pad 3 smd rect (at -0.92 -0.56 180) (size 0.7 0.7) (layers F.Cu F.Paste F.Mask)\u000a      (net 2 DI))\u000a    (pad 2 smd rect (at 0.92 -0.56 180) (size 0.7 0.7) (layers F.Cu F.Paste F.Mask)\u000a      (net 3 GND))\u000a    (pad 1 smd rect (at 0.92 0.56 180) (size 0.7 0.7) (layers F.Cu F.Paste F.Mask)\u000a      (net 4 DO))\u000a    (model /Users/wingtangwong/Documents/KICAD/LIBRARY/3D-MODELS/ws2812c-2020-led-1.snapshot.7/LED_WS2812_2020.step\u000a      (at (xyz 0 0 0))\u000a      (scale (xyz 1 1 1))\u000a      (rotate (xyz 0 0 0))\u000a    )\u000a  )\u000a\u000a  (module cherry:SW_Cherry_MX_1.00u_PCB (layer F.Cu) (tedit 5A02FE24) (tstamp 614F2E95)\u000a    (at 2.6 -5.1)\u000a    (descr "Cherry MX keyswitch, 1.00u, PCB mount, http://cherryamericas.com/wp-content/uploads/2014/12/mx_cat.pdf")\u000a    (tags "Cherry MX keyswitch 1.00u PCB")\u000a    (path /614F2672/614F0979)\u000a    (fp_text reference SW1 (at -2.4 5.1) (layer F.SilkS)\u000a      (effects (font (size 1 1) (thickness 0.15)))\u000a    )\u000a    (fp_text value SW_Push (at -2.54 12.954) (layer F.Fab) hide\u000a      (effects (font (size 1 1) (thickness 0.15)))\u000a    )\u000a    (fp_line (start -9.525 12.065) (end -9.525 -1.905) (layer F.SilkS) (width 0.12))\u000a    (fp_line (start 4.445 12.065) (end -9.525 12.065) (layer F.SilkS) (width 0.12))\u000a    (fp_line (start 4.445 -1.905) (end 4.445 12.065) (layer F.SilkS) (width 0.12))\u000a    (fp_line (start -9.525 -1.905) (end 4.445 -1.905) (layer F.SilkS) (width 0.12))\u000a    (fp_line (start -12.065 14.605) (end -12.065 -4.445) (layer Dwgs.User) (width 0.15))\u000a    (fp_line (start 6.985 14.605) (end -12.065 14.605) (layer Dwgs.User) (width 0.15))\u000a    (fp_line (start 6.985 -4.445) (end 6.985 14.605) (layer Dwgs.User) (width 0.15))\u000a    (fp_line (start -12.065 -4.445) (end 6.985 -4.445) (layer Dwgs.User) (width 0.15))\u000a    (fp_line (start -9.14 -1.52) (end 4.06 -1.52) (layer F.CrtYd) (width 0.05))\u000a    (fp_line (start 4.06 -1.52) (end 4.06 11.68) (layer F.CrtYd) (width 0.05))\u000a    (fp_line (start 4.06 11.68) (end -9.14 11.68) (layer F.CrtYd) (width 0.05))\u000a    (fp_line (start -9.14 11.68) (end -9.14 -1.52) (layer F.CrtYd) (width 0.05))\u000a    (fp_line (start -8.89 11.43) (end -8.89 -1.27) (layer F.Fab) (width 0.1))\u000a    (fp_line (start 3.81 11.43) (end -8.89 11.43) (layer F.Fab) (width 0.1))\u000a    (fp_line (start 3.81 -1.27) (end 3.81 11.43) (layer F.Fab) (width 0.1))\u000a    (fp_line (start -8.89 -1.27) (end 3.81 -1.27) (layer F.Fab) (width 0.1))\u000a    (fp_text user %R (at -2.54 -2.794) (layer F.Fab) hide\u000a      (effects (font (size 1 1) (thickness 0.15)))\u000a    )\u000a    (pad "" np_thru_hole circle (at 2.54 5.08) (size 1.7 1.7) (drill 1.7) (layers *.Cu *.Mask))\u000a    (pad "" np_thru_hole circle (at -7.62 5.08) (size 1.7 1.7) (drill 1.7) (layers *.Cu *.Mask))\u000a    (pad "" np_thru_hole circle (at -2.54 5.08) (size 4 4) (drill 4) (layers *.Cu *.Mask))\u000a    (pad 2 thru_hole circle (at -6.35 2.54) (size 2.2 2.2) (drill 1.5) (layers *.Cu *.Mask)\u000a      (net 5 COL))\u000a    (pad 1 thru_hole circle (at 0 0) (size 2.2 2.2) (drill 1.5) (layers *.Cu *.Mask)\u000a      (net 6 "Net-(D1-Pad2)"))\u000a    (model ${KISYS3DMOD}/Button_Switch_Keyboard.3dshapes/SW_Cherry_MX_1.00u_PCB.wrl\u000a      (at (xyz 0 0 0))\u000a      (scale (xyz 1 1 1))\u000a      (rotate (xyz 0 0 0))\u000a    )\u000a  )\u000a\u000a  (module Diode_SMD:D_0402_1005Metric_Pad0.77x0.64mm_HandSolder (layer F.Cu) (tedit 61480FE5) (tstamp 614F2D15)\u000a    (at 1.9 5.1725 90)\u000a    (descr "Diode SMD 0402 (1005 Metric), square (rectangular) end terminal, IPC_7351 nominal, (Body size source: http://www.tortai-tech.com/upload/download/2011102023233369053.pdf), generated with kicad-footprint-generator")\u000a    (tags "diode handsolder")\u000a    (path /614F2672/614F9BFF)\u000a    (attr smd)\u000a    (fp_text reference D1 (at 0.2725 1.4 90) (layer F.SilkS)\u000a      (effects (font (size 1 1) (thickness 0.15)))\u000a    )\u000a    (fp_text value D (at -0.3275 2.9 90) (layer F.Fab)\u000a      (effects (font (size 1 1) (thickness 0.15)))\u000a    )\u000a    (fp_circle (center -1.265 0) (end -1.215 0) (layer F.SilkS) (width 0.1))\u000a    (fp_line (start -0.5 0.25) (end -0.5 -0.25) (layer F.Fab) (width 0.1))\u000a    (fp_line (start -0.5 -0.25) (end 0.5 -0.25) (layer F.Fab) (width 0.1))\u000a    (fp_line (start 0.5 -0.25) (end 0.5 0.25) (layer F.Fab) (width 0.1))\u000a    (fp_line (start 0.5 0.25) (end -0.5 0.25) (layer F.Fab) (width 0.1))\u000a    (fp_line (start -0.4 0.25) (end -0.4 -0.25) (layer F.Fab) (width 0.1))\u000a    (fp_line (start -0.3 0.25) (end -0.3 -0.25) (layer F.Fab) (width 0.1))\u000a    (fp_line (start -1.1 0.47) (end -1.1 -0.47) (layer F.CrtYd) (width 0.05))\u000a    (fp_line (start -1.1 -0.47) (end 1.1 -0.47) (layer F.CrtYd) (width 0.05))\u000a    (fp_line (start 1.1 -0.47) (end 1.1 0.47) (layer F.CrtYd) (width 0.05))\u000a    (fp_line (start 1.1 0.47) (end -1.1 0.47) (layer F.CrtYd) (width 0.05))\u000a    (fp_text user %R (at 0 0 90) (layer F.Fab)\u000a      (effects (font (size 0.25 0.25) (thickness 0.04)))\u000a    )\u000a    (pad 2 smd roundrect (at 0.5725 0 90) (size 0.765 0.64) (layers F.Cu F.Paste F.Mask) (roundrect_rratio 0.25)\u000a      (net 6 "Net-(D1-Pad2)"))\u000a    (pad 1 smd roundrect (at -0.5725 0 90) (size 0.765 0.64) (layers F.Cu F.Paste F.Mask) (roundrect_rratio 0.25)\u000a      (net 7 ROW))\u000a    (model ${KISYS3DMOD}/LED_SMD.3dshapes/LED_0402_1005Metric.step\u000a      (at (xyz 0 0 0))\u000a      (scale (xyz 1 1 1))\u000a      (rotate (xyz 0 0 0))\u000a    )\u000a  )\u000a\u000a  (gr_arc (start 3 -9) (end 2 -9) (angle -90) (layer Edge.Cuts) (width 0.05) (tstamp 614F7B4A))\u000a  (gr_line (start 3 -8) (end 7 -8) (layer Edge.Cuts) (width 0.05) (tstamp 614F7B48))\u000a  (gr_line (start -7 -8) (end -3 -8) (layer Edge.Cuts) (width 0.05) (tstamp 614F7B45))\u000a  (gr_arc (start -3 -9) (end -3 -8) (angle -90) (layer Edge.Cuts) (width 0.05) (tstamp 614F7B44))\u000a  (gr_arc (start 9 3) (end 9 2) (angle -90) (layer Edge.Cuts) (width 0.05) (tstamp 614F7B4A))\u000a  (gr_line (start 8 3) (end 8 7) (layer Edge.Cuts) (width 0.05) (tstamp 614F7B48))\u000a  (gr_line (start 8 -7) (end 8 -3) (layer Edge.Cuts) (width 0.05) (tstamp 614F7B45))\u000a  (gr_arc (start 9 -3) (end 8 -3) (angle -90) (layer Edge.Cuts) (width 0.05) (tstamp 614F7B44))\u000a  (gr_arc (start -3 9) (end -2 9) (angle -90) (layer Edge.Cuts) (width 0.05) (tstamp 614F7B4A))\u000a  (gr_line (start -3 8) (end -7 8) (layer Edge.Cuts) (width 0.05) (tstamp 614F7B48))\u000a  (gr_line (start 7 8) (end 3 8) (layer Edge.Cuts) (width 0.05) (tstamp 614F7B45))\u000a  (gr_arc (start 3 9) (end 3 8) (angle -90) (layer Edge.Cuts) (width 0.05) (tstamp 614F7B44))\u000a  (gr_arc (start -9 3) (end -8 3) (angle -90) (layer Edge.Cuts) (width 0.05) (tstamp 614F7B5E))\u000a  (gr_arc (start -9 -3) (end -9 -2) (angle -90) (layer Edge.Cuts) (width 0.05) (tstamp 614F7B4C))\u000a  (gr_line (start -8 7) (end -8 3) (layer Edge.Cuts) (width 0.05) (tstamp 614F7B5B))\u000a  (gr_line (start -8 -3) (end -8 -7) (layer Edge.Cuts) (width 0.05) (tstamp 614F7B52))\u000a  (gr_circle (center 2.5 6.2) (end 2.6 6.3) (layer F.SilkS) (width 0.12))\u000a  (gr_circle (center 1.2 6.5) (end 1.4 6.6) (layer F.SilkS) (width 0.12))\u000a  (gr_poly (pts (xy -5.35 1.45) (xy -5.5 1.8) (xy -7.6 1.85) (xy -7.6 -1.85) (xy -5.45 -1.85)) (layer B.Mask) (width 0.1) (tstamp 614F9005))\u000a  (gr_poly (pts (xy 7.55 7.25) (xy 7.4 7.6) (xy 4.2 7.65) (xy 4.275 3.7) (xy 7.525 3.7)) (layer B.Mask) (width 0.1) (tstamp 614F9005))\u000a  (gr_poly (pts (xy 1.55 5.35) (xy 1.9 5.5) (xy 1.95 7.6) (xy -1.75 7.6) (xy -1.75 5.45)) (layer B.Mask) (width 0.1) (tstamp 614F9005))\u000a  (gr_poly (pts (xy -5.35 7.35) (xy -5.5 7.7) (xy -7.6 7.75) (xy -7.6 4.05) (xy -5.45 4.05)) (layer B.Mask) (width 0.1) (tstamp 614F8FFF))\u000a  (gr_text DO (at 3.1 6.9 180) (layer B.SilkS) (tstamp 614F8FE4)\u000a    (effects (font (size 1 1) (thickness 0.15)) (justify mirror))\u000a  )\u000a  (gr_text DI (at -4.2 6.9 180) (layer B.SilkS) (tstamp 614F8FDB)\u000a    (effects (font (size 1 1) (thickness 0.15)) (justify mirror))\u000a  )\u000a  (gr_text "COL\u005cn" (at -0.1 3.7 90) (layer B.SilkS) (tstamp 614F8FDB)\u000a    (effects (font (size 1 1) (thickness 0.15)) (justify mirror))\u000a  )\u000a  (gr_text ROW (at -3.7 1.8) (layer B.SilkS)\u000a    (effects (font (size 1 1) (thickness 0.15)) (justify mirror))\u000a  )\u000a  (gr_text ROW (at 3.4 1.7) (layer B.SilkS)\u000a    (effects (font (size 1 1) (thickness 0.15)) (justify mirror))\u000a  )\u000a  (gr_text GND (at 3.6 -2.5) (layer B.SilkS)\u000a    (effects (font (size 1 1) (thickness 0.15)) (justify mirror))\u000a  )\u000a  (gr_text "COL\u005cn" (at -0.5 -3.7 90) (layer B.SilkS)\u000a    (effects (font (size 1 1) (thickness 0.15)) (justify mirror))\u000a  )\u000a  (gr_text "VCC\u005cn" (at -6.4 -3) (layer B.SilkS)\u000a    (effects (font (size 1 1) (thickness 0.15)) (justify mirror))\u000a  )\u000a  (gr_poly (pts (xy 7.7 1.2) (xy 7.6 2.3) (xy 5.45 2.3) (xy 5.4 -2.3) (xy 7.75 -2.3)) (layer B.Mask) (width 0.1) (tstamp 614F8F1A))\u000a  (gr_poly (pts (xy 1.4 -6.3) (xy 1 -5.9) (xy -2.5 -5.9) (xy -2.5 -7.8) (xy 1.3 -7.8)) (layer B.Mask) (width 0.1) (tstamp 614F8F1A))\u000a  (gr_poly (pts (xy 4.6875 -3.425) (xy 4.3125 -4.1) (xy 4.35 -7.7) (xy 7.7 -7.7) (xy 7.7 -3.5)) (layer B.Mask) (width 0.1) (tstamp 614F8F1A))\u000a  (gr_poly (pts (xy -4.1 -4.5) (xy -4.5 -4.1) (xy -7.8 -4.05) (xy -7.8 -7.75) (xy -4.2 -7.8)) (layer B.Mask) (width 0.1))\u000a  (gr_text "KEY SIDE" (at 7.3 0.225 270) (layer F.SilkS) (tstamp 614F86C4)\u000a    (effects (font (size 1 1) (thickness 0.15)))\u000a  )\u000a  (gr_text "KEY SIDE" (at -7.1 0.175 90) (layer F.SilkS)\u000a    (effects (font (size 1 1) (thickness 0.15)))\u000a  )\u000a  (gr_arc (start -7 7) (end -8 7) (angle -90) (layer Edge.Cuts) (width 0.05) (tstamp 614F8647))\u000a  (gr_arc (start 7 7) (end 7 8) (angle -90) (layer Edge.Cuts) (width 0.05) (tstamp 614F8647))\u000a  (gr_arc (start 7 -7) (end 8 -7) (angle -90) (layer Edge.Cuts) (width 0.05) (tstamp 614F8647))\u000a  (gr_arc (start -7 -7) (end -7 -8) (angle -90) (layer Edge.Cuts) (width 0.05))\u000a\u000a  (via (at -9 -1.5) (size 0.8) (drill 0.4) (layers F.Cu B.Cu) (net 0))\u000a  (via (at -9 -0.5) (size 0.8) (drill 0.4) (layers F.Cu B.Cu) (net 0))\u000a  (via (at -9 0.5) (size 0.8) (drill 0.4) (layers F.Cu B.Cu) (net 0))\u000a  (via (at -9 1.5) (size 0.8) (drill 0.4) (layers F.Cu B.Cu) (net 0))\u000a  (via (at -1.5 -9) (size 0.8) (drill 0.4) (layers F.Cu B.Cu) (net 0))\u000a  (via (at -0.5 -9) (size 0.8) (drill 0.4) (layers F.Cu B.Cu) (net 0))\u000a  (via (at 0.5 -9) (size 0.8) (drill 0.4) (layers F.Cu B.Cu) (net 0))\u000a  (via (at 1.5 -9) (size 0.8) (drill 0.4) (layers F.Cu B.Cu) (net 0))\u000a  (via (at 9 -1.5) (size 0.8) (drill 0.4) (layers F.Cu B.Cu) (net 0))\u000a  (via (at 9 -0.5) (size 0.8) (drill 0.4) (layers F.Cu B.Cu) (net 0))\u000a  (via (at 9 0.5) (size 0.8) (drill 0.4) (layers F.Cu B.Cu) (net 0))\u000a  (via (at 9 1.5) (size 0.8) (drill 0.4) (layers F.Cu B.Cu) (net 0))\u000a  (via (at 1.5 9) (size 0.8) (drill 0.4) (layers F.Cu B.Cu) (net 0))\u000a  (via (at 0.5 9) (size 0.8) (drill 0.4) (layers F.Cu B.Cu) (net 0))\u000a  (via (at -0.5 9) (size 0.8) (drill 0.4) (layers F.Cu B.Cu) (net 0))\u000a  (via (at -1.5 9) (size 0.8) (drill 0.4) (layers F.Cu B.Cu) (net 0))\u000a  (via (at -3.6 5.4) (size 0.8) (drill 0.4) (layers F.Cu B.Cu) (net 1))\u000a  (segment (start -3.53 5.47) (end -3.6 5.4) (width 0.5) (layer F.Cu) (net 1))\u000a  (via (at -6.7 -6.8) (size 0.8) (drill 0.4) (layers F.Cu B.Cu) (net 1))\u000a  (segment (start -6.524999 -6.624999) (end -6.7 -6.8) (width 0.5) (layer F.Cu) (net 1))\u000a  (via (at -3.6 3.5) (size 0.8) (drill 0.4) (layers F.Cu B.Cu) (net 1))\u000a  (segment (start -3.6 5.4) (end -3.6 3.5) (width 0.5) (layer B.Cu) (net 1))\u000a  (segment (start -2.259999 -1.795999) (end -2.259999 -3.284001) (width 0.5) (layer F.Cu) (net 1))\u000a  (segment (start -3.6 -0.455998) (end -2.259999 -1.795999) (width 0.5) (layer F.Cu) (net 1))\u000a  (segment (start -2.259999 -3.284001) (end -4.575998 -5.6) (width 0.5) (layer F.Cu) (net 1))\u000a  (segment (start -3.6 3.5) (end -3.6 -0.455998) (width 0.5) (layer F.Cu) (net 1))\u000a  (segment (start -5.5 -5.6) (end -6.7 -6.8) (width 0.5) (layer F.Cu) (net 1))\u000a  (segment (start -4.575998 -5.6) (end -5.5 -5.6) (width 0.5) (layer F.Cu) (net 1))\u000a  (segment (start -3.24 5.76) (end -3.6 5.4) (width 0.5) (layer F.Cu) (net 1))\u000a  (segment (start -1.32 5.76) (end -3.24 5.76) (width 0.5) (layer F.Cu) (net 1))\u000a  (segment (start -5.9 5.9) (end -4.35 4.35) (width 0.5) (layer F.Cu) (net 2))\u000a  (via (at -5.9 5.9) (size 0.8) (drill 0.4) (layers F.Cu B.Cu) (net 2))\u000a  (segment (start -4.35 4.35) (end -2.75 4.35) (width 0.5) (layer F.Cu) (net 2))\u000a  (segment (start -2.46 4.64) (end -2.75 4.35) (width 0.5) (layer F.Cu) (net 2))\u000a  (segment (start -1.32 4.64) (end -2.46 4.64) (width 0.5) (layer F.Cu) (net 2))\u000a  (via (at 6.2 -6.1) (size 0.8) (drill 0.4) (layers F.Cu B.Cu) (net 3))\u000a  (segment (start 6.2 -6.1) (end 5.2 -7.1) (width 0.5) (layer F.Cu) (net 3))\u000a  (segment (start 5.2 -7.1) (end 1.4 -7.1) (width 0.5) (layer F.Cu) (net 3))\u000a  (segment (start 1.4 -7.1) (end 0.6 -6.3) (width 0.5) (layer F.Cu) (net 3))\u000a  (segment (start 0.6 -6.3) (end 0.6 -3.7) (width 0.5) (layer F.Cu) (net 3))\u000a  (segment (start 0.62 4.64) (end 0.62 3.68) (width 0.5) (layer F.Cu) (net 3))\u000a  (segment (start 0.62 3.68) (end 2.5 1.8) (width 0.5) (layer F.Cu) (net 3))\u000a  (segment (start 2.510001 1.156001) (end 2.510001 -1.589999) (width 0.5) (layer F.Cu) (net 3))\u000a  (segment (start 2.5 1.166002) (end 2.510001 1.156001) (width 0.5) (layer F.Cu) (net 3))\u000a  (segment (start 2.5 1.8) (end 2.5 1.166002) (width 0.5) (layer F.Cu) (net 3))\u000a  (segment (start 0.6 -3.5) (end 0.6 -3.7) (width 0.5) (layer F.Cu) (net 3))\u000a  (segment (start 2.510001 -1.589999) (end 0.6 -3.5) (width 0.5) (layer F.Cu) (net 3))\u000a  (via (at 7 6.9) (size 0.8) (drill 0.4) (layers F.Cu B.Cu) (net 4))\u000a  (segment (start 2.8 6.9) (end 7 6.9) (width 0.5) (layer F.Cu) (net 4))\u000a  (segment (start 0.8 6.9) (end 2.8 6.9) (width 0.5) (layer F.Cu) (net 4))\u000a  (segment (start 0.52 6.62) (end 0.8 6.9) (width 0.5) (layer F.Cu) (net 4))\u000a  (segment (start 0.52 5.76) (end 0.52 6.62) (width 0.5) (layer F.Cu) (net 4))\u000a  (segment (start -0.71 -7.09) (end -0.7 -5.65) (width 0.5) (layer B.Cu) (net 5))\u000a  (segment (start -3.81 -2.54) (end -0.7 -5.65) (width 0.5) (layer B.Cu) (net 5))\u000a  (segment (start -5.46 -2.54) (end -3.81 -2.54) (width 0.5) (layer F.Cu) (net 5))\u000a  (segment (start -6.524999 -1.475001) (end -5.46 -2.54) (width 0.5) (layer F.Cu) (net 5))\u000a  (segment (start -6.4 3.4) (end -6.524999 -1.475001) (width 0.5) (layer F.Cu) (net 5))\u000a  (segment (start -6.4 4.5) (end -6.4 3.4) (width 0.5) (layer F.Cu) (net 5))\u000a  (segment (start -7 5.1) (end -6.4 4.5) (width 0.5) (layer F.Cu) (net 5))\u000a  (segment (start -7 6.4) (end -7 5.1) (width 0.5) (layer F.Cu) (net 5))\u000a  (segment (start -6.4 7) (end -7 6.4) (width 0.5) (layer F.Cu) (net 5))\u000a  (segment (start -1.1 7) (end -6.4 7) (width 0.5) (layer F.Cu) (net 5))\u000a  (segment (start 0.29 7.01) (end -1.1 7) (width 0.5) (layer B.Cu) (net 5))\u000a  (via (at -1.1 7) (size 0.8) (drill 0.4) (layers F.Cu B.Cu) (net 5))\u000a  (segment (start 2.54 -3.06) (end 2.54 -5.08) (width 0.5) (layer F.Cu) (net 6))\u000a  (segment (start 3.7 -1.9) (end 2.54 -3.06) (width 0.5) (layer F.Cu) (net 6))\u000a  (segment (start 1.9 4.5) (end 3.7 2.7) (width 0.5) (layer F.Cu) (net 6))\u000a  (segment (start 3.7 2.7) (end 3.7 -1.9) (width 0.5) (layer F.Cu) (net 6))\u000a  (segment (start 1.9 4.6) (end 1.9 4.5) (width 0.5) (layer F.Cu) (net 6))\u000a  (via (at 6.2 1.8) (size 0.8) (drill 0.4) (layers F.Cu B.Cu) (net 7))\u000a  (via (at -7.375 1.7) (size 0.8) (drill 0.4) (layers F.Cu B.Cu) (net 7))\u000a  (segment (start -6.624999 2.450001) (end -7.375 1.7) (width 0.5) (layer B.Cu) (net 7))\u000a  (segment (start 6.2 1.8) (end 5.549999 2.450001) (width 0.5) (layer B.Cu) (net 7))\u000a  (segment (start 4.950001 2.450001) (end -6.624999 2.450001) (width 0.5) (layer B.Cu) (net 7))\u000a  (segment (start 5.549999 2.450001) (end 4.950001 2.450001) (width 0.5) (layer B.Cu) (net 7))\u000a  (via (at 4.950001 2.450001) (size 0.8) (drill 0.4) (layers F.Cu B.Cu) (net 7))\u000a  (segment (start 5.1 2.6) (end 4.950001 2.450001) (width 0.5) (layer F.Cu) (net 7))\u000a  (segment (start 5.1 5.1) (end 5.1 2.6) (width 0.5) (layer F.Cu) (net 7))\u000a  (segment (start 4.6275 5.5725) (end 5.1 5.1) (width 0.5) (layer F.Cu) (net 7))\u000a  (segment (start 1.9 5.745) (end 4.6275 5.5725) (width 0.5) (layer F.Cu) (net 7))\u000a\u000a  (zone (net 7) (net_name ROW) (layer B.Cu) (tstamp 614F9995) (hatch edge 0.508)\u000a    (connect_pads (clearance 0.2))\u000a    (min_thickness 0.2)\u000a    (fill yes (arc_segments 32) (thermal_gap 0.508) (thermal_bridge_width 0.508) (smoothing fillet) (radius 0.5))\u000a    (polygon\u000a      (pts\u000a        (xy -5.4 2) (xy -8.3 2) (xy -8.3 -2) (xy -5.5 -2)\u000a      )\u000a    )\u000a    (filled_polygon\u000a      (pts\u000a        (xy -5.866319 -1.879886) (xy -5.756488 -1.824958) (xy -5.668576 -1.739216) (xy -5.610921 -1.630795) (xy -5.587587 -1.502256)\u000a        (xy -5.575823 -1.031703) (xy -5.753082 -0.913263) (xy -5.913263 -0.753082) (xy -6.039116 -0.564729) (xy -6.125806 -0.355443)\u000a        (xy -6.17 -0.133265) (xy -6.17 0.093265) (xy -6.125806 0.315443) (xy -6.039116 0.524729) (xy -5.913263 0.713082)\u000a        (xy -5.753082 0.873263) (xy -5.564729 0.999116) (xy -5.524638 1.015723) (xy -5.512947 1.483351) (xy -5.525078 1.595244)\u000a        (xy -5.563741 1.693769) (xy -5.626938 1.778663) (xy -5.710228 1.843964) (xy -5.807754 1.885077) (xy -5.919314 1.9)\u000a        (xy -7.675 1.9) (xy -7.675 -1.9) (xy -5.995402 -1.9)\u000a      )\u000a    )\u000a  )\u000a  (zone (net 7) (net_name ROW) (layer B.Cu) (tstamp 614F9992) (hatch edge 0.508)\u000a    (connect_pads (clearance 0.2))\u000a    (min_thickness 0.2)\u000a    (fill yes (arc_segments 32) (thermal_gap 0.508) (thermal_bridge_width 0.508) (smoothing fillet) (radius 0.5))\u000a    (polygon\u000a      (pts\u000a        (xy 5.25 -2.4) (xy 8.15 -2.4) (xy 8.1 2.3) (xy 5.3 2.3)\u000a      )\u000a    )\u000a    (filled_polygon\u000a      (pts\u000a        (xy 7.675 -2.295103) (xy 7.675001 2.190035) (xy 7.598782 2.2) (xy 5.801218 2.2) (xy 5.692085 2.185731)\u000a        (xy 5.596364 2.146379) (xy 5.513971 2.083736) (xy 5.450461 2.002023) (xy 5.410091 1.906719) (xy 5.394662 1.797747)\u000a        (xy 5.387275 1.103344) (xy 5.475443 1.085806) (xy 5.684729 0.999116) (xy 5.873082 0.873263) (xy 6.033263 0.713082)\u000a        (xy 6.159116 0.524729) (xy 6.245806 0.315443) (xy 6.29 0.093265) (xy 6.29 -0.133265) (xy 6.245806 -0.355443)\u000a        (xy 6.159116 -0.564729) (xy 6.033263 -0.753082) (xy 5.873082 -0.913263) (xy 5.684729 -1.039116) (xy 5.475443 -1.125806)\u000a        (xy 5.363323 -1.148108) (xy 5.35544 -1.889145) (xy 5.368921 -1.99988) (xy 5.408287 -2.097103) (xy 5.471628 -2.18072)\u000a        (xy 5.554561 -2.244942) (xy 5.651364 -2.285342) (xy 5.761946 -2.3) (xy 7.638054 -2.3)\u000a      )\u000a    )\u000a  )\u000a  (zone (net 5) (net_name COL) (layer B.Cu) (tstamp 614F998F) (hatch edge 0.508)\u000a    (connect_pads (clearance 0.2))\u000a    (min_thickness 0.2)\u000a    (fill yes (arc_segments 32) (thermal_gap 0.508) (thermal_bridge_width 0.508) (smoothing fillet) (radius 0.5))\u000a    (polygon\u000a      (pts\u000a        (xy -2.6 -5.2) (xy -2.6 -8.1) (xy 1.4 -8.1) (xy 1.4 -5.3)\u000a      )\u000a    )\u000a    (filled_polygon\u000a      (pts\u000a        (xy 1.3 -7.593441) (xy 1.3 -5.795402) (xy 1.279886 -5.666319) (xy 1.224958 -5.556488) (xy 1.139216 -5.468576)\u000a        (xy 1.030795 -5.410921) (xy 0.902256 -5.387587) (xy -2.083351 -5.312947) (xy -2.195244 -5.325078) (xy -2.293769 -5.363741)\u000a        (xy -2.378663 -5.426938) (xy -2.443964 -5.510228) (xy -2.485077 -5.607754) (xy -2.5 -5.719314) (xy -2.5 -7.593441)\u000a        (xy -2.489263 -7.675) (xy 1.289263 -7.675)\u000a      )\u000a    )\u000a  )\u000a  (zone (net 5) (net_name COL) (layer B.Cu) (tstamp 614F998C) (hatch edge 0.508)\u000a    (connect_pads (clearance 0.2))\u000a    (min_thickness 0.2)\u000a    (fill yes (arc_segments 32) (thermal_gap 0.508) (thermal_bridge_width 0.508) (smoothing fillet) (radius 0.5))\u000a    (polygon\u000a      (pts\u000a        (xy 2.1 5.3) (xy 2.1 8.2) (xy -1.9 8.2) (xy -1.9 5.4)\u000a      )\u000a    )\u000a    (filled_polygon\u000a      (pts\u000a        (xy 1.695244 5.425078) (xy 1.793769 5.463741) (xy 1.878663 5.526938) (xy 1.943964 5.610228) (xy 1.985077 5.707754)\u000a        (xy 2 5.819314) (xy 2 7.675) (xy -1.8 7.675) (xy -1.8 5.895402) (xy -1.779886 5.766319)\u000a        (xy -1.724958 5.656488) (xy -1.639216 5.568576) (xy -1.530795 5.510921) (xy -1.402256 5.487587) (xy 1.583351 5.412947)\u000a      )\u000a    )\u000a  )\u000a  (zone (net 3) (net_name GND) (layer B.Cu) (tstamp 614F9989) (hatch edge 0.508)\u000a    (connect_pads (clearance 0.2))\u000a    (min_thickness 0.2)\u000a    (fill yes (arc_segments 32) (thermal_gap 0.508) (thermal_bridge_width 0.508) (smoothing fillet) (radius 0.5))\u000a    (polygon\u000a      (pts\u000a        (xy 8.1 -3.4) (xy 4.3 -3.35) (xy 4.3 -8.05) (xy 8 -8.1)\u000a      )\u000a    )\u000a    (filled_polygon\u000a      (pts\u000a        (xy 7.130805 -7.660616) (xy 7.256629 -7.622627) (xy 7.372675 -7.560924) (xy 7.474532 -7.477852) (xy 7.55831 -7.376582)\u000a        (xy 7.620819 -7.260973) (xy 7.659686 -7.135414) (xy 7.675 -6.989715) (xy 7.675 -3.505943) (xy 7.588066 -3.493272)\u000a        (xy 4.811875 -3.456744) (xy 4.700931 -3.46999) (xy 4.603479 -3.509234) (xy 4.519641 -3.572549) (xy 4.455227 -3.65555)\u000a        (xy 4.414705 -3.752475) (xy 4.4 -3.86323) (xy 4.4 -7.550214) (xy 4.414217 -7.659149) (xy 4.42072 -7.675)\u000a        (xy 6.984103 -7.675)\u000a      )\u000a    )\u000a  )\u000a  (zone (net 1) (net_name VCC) (layer B.Cu) (tstamp 614F9986) (hatch edge 0.508)\u000a    (connect_pads (clearance 0.2))\u000a    (min_thickness 0.2)\u000a    (fill yes (arc_segments 32) (thermal_gap 0.508) (thermal_bridge_width 0.508) (smoothing fillet) (radius 0.5))\u000a    (polygon\u000a      (pts\u000a        (xy -4.1 -4) (xy -8 -4) (xy -8 -8) (xy -4.1 -8)\u000a      )\u000a    )\u000a    (filled_polygon\u000a      (pts\u000a        (xy -4.214464 -7.603307) (xy -4.2 -7.493441) (xy -4.2 -4.506559) (xy -4.214464 -4.396693) (xy -4.254336 -4.300433)\u000a        (xy -4.317768 -4.217768) (xy -4.400433 -4.154336) (xy -4.496693 -4.114464) (xy -4.606559 -4.1) (xy -7.493441 -4.1)\u000a        (xy -7.603307 -4.114464) (xy -7.675 -4.14416) (xy -7.675 -6.984103) (xy -7.660616 -7.130805) (xy -7.622627 -7.256629)\u000a        (xy -7.560924 -7.372675) (xy -7.477852 -7.474532) (xy -7.376582 -7.55831) (xy -7.260973 -7.620819) (xy -7.135414 -7.659686)\u000a        (xy -6.989715 -7.675) (xy -4.24416 -7.675)\u000a      )\u000a    )\u000a  )\u000a  (zone (net 4) (net_name DO) (layer B.Cu) (tstamp 614F9983) (hatch edge 0.508)\u000a    (connect_pads (clearance 0.2))\u000a    (min_thickness 0.2)\u000a    (fill yes (arc_segments 32) (thermal_gap 0.508) (thermal_bridge_width 0.508) (smoothing fillet) (radius 0.5))\u000a    (polygon\u000a      (pts\u000a        (xy 8 8) (xy 4 8) (xy 4.05 3.5) (xy 7.95 3.5)\u000a      )\u000a    )\u000a    (filled_polygon\u000a      (pts\u000a        (xy 7.558119 3.614261) (xy 7.65382 3.653591) (xy 7.675001 3.669688) (xy 7.675001 6.984094) (xy 7.660616 7.130805)\u000a        (xy 7.622627 7.256629) (xy 7.560924 7.372675) (xy 7.477853 7.474531) (xy 7.376586 7.558307) (xy 7.260973 7.620819)\u000a        (xy 7.13541 7.659687) (xy 6.989716 7.675) (xy 4.149568 7.675) (xy 4.119121 7.599725) (xy 4.105684 7.488959)\u000a        (xy 4.144428 4.002059) (xy 4.159899 3.893129) (xy 4.20029 3.79787) (xy 4.263807 3.716194) (xy 4.34618 3.653591)\u000a        (xy 4.441881 3.614261) (xy 4.550987 3.6) (xy 7.449013 3.6)\u000a      )\u000a    )\u000a  )\u000a  (zone (net 2) (net_name DI) (layer B.Cu) (tstamp 614F9980) (hatch edge 0.508)\u000a    (connect_pads (clearance 0.2))\u000a    (min_thickness 0.2)\u000a    (fill yes (arc_segments 32) (thermal_gap 0.508) (thermal_bridge_width 0.508) (smoothing fillet) (radius 0.5))\u000a    (polygon\u000a      (pts\u000a        (xy -5.1 7.9) (xy -8 7.9) (xy -8 3.9) (xy -5.2 3.9)\u000a      )\u000a    )\u000a    (filled_polygon\u000a      (pts\u000a        (xy -5.566319 4.020114) (xy -5.456488 4.075042) (xy -5.368576 4.160784) (xy -5.310921 4.269205) (xy -5.287587 4.397744)\u000a        (xy -5.212947 7.383351) (xy -5.225078 7.495244) (xy -5.263741 7.593769) (xy -5.324211 7.675) (xy -6.984104 7.675)\u000a        (xy -7.130805 7.660616) (xy -7.256629 7.622627) (xy -7.372675 7.560924) (xy -7.474531 7.477853) (xy -7.558307 7.376586)\u000a        (xy -7.620819 7.260973) (xy -7.659687 7.13541) (xy -7.675 6.989716) (xy -7.675 4.04416) (xy -7.603307 4.014464)\u000a        (xy -7.493441 4) (xy -5.695402 4)\u000a      )\u000a    )\u000a  )\u000a)\u000a
p3
S'77345399d986f4071eccd0e8538b1a8c'
p4
(dp5
V614F1BC6
p6
(lp7
Vsheet614F1BC4
p8
aVone-key.sch
p9
asV614F1A10
p10
(lp11
Vsheet614F1A0E
p12
aVone-key.sch
p13
asV614F26AE
p14
(lp15
Vsheet614F26AC
p16
aVone-key.sch
p17
asV614F1C92
p18
(lp19
Vsheet614F1C90
p20
aVone-key.sch
p21
asV614F1A82
p22
(lp23
Vsheet614F1A80
p24
aVone-key.sch
p25
asV614F1B69
p26
(lp27
Vsheet614F1B67
p28
aVone-key.sch
p29
asV614F1CE6
p30
(lp31
Vsheet614F1CE4
p32
aVone-key.sch
p33
asV614F2672
p34
(lp35
Vsheet614F2670
p36
aVone-key.sch
p37
asV614F1AF6
p38
(lp39
Vsheet614F1AF4
p40
aVone-key.sch
p41
asV614F1C27
p42
(lp43
Vsheet614F1C25
p44
aVone-key.sch
p45
asV614F178C
p46
(lp47
V1KEY-MAIN
p48
aVone-key.sch
p49
asV614F1D62
p50
(lp51
Vsheet614F1D60
p52
aVone-key.sch
p53
as(lp54
VVCC
p55
aVDI
p56
aVGND
p57
aVDO
p58
aV
p59
aVCOL
p60
aVNet-(D1-Pad2)
p61
aVROW
p62
a(lp63
g36
a(lp64
g37
atp65
tp66
Rp67
.