ccopy_reg
_reconstructor
p0
(cKicad_action_plugins.save_restore_layout.save_restore_layout
LayoutData
p1
c__builtin__
tuple
p2
(V(kicad_pcb (version 20171130) (host pcbnew "(5.1.9-0-10_14)")\u000a\u000a  (general\u000a    (thickness 1.6)\u000a    (drawings 5)\u000a    (tracks 165)\u000a    (zones 0)\u000a    (modules 7)\u000a    (nets 8)\u000a  )\u000a\u000a  (page A4)\u000a  (layers\u000a    (0 F.Cu signal)\u000a    (31 B.Cu signal)\u000a    (32 B.Adhes user)\u000a    (33 F.Adhes user)\u000a    (34 B.Paste user)\u000a    (35 F.Paste user)\u000a    (36 B.SilkS user)\u000a    (37 F.SilkS user)\u000a    (38 B.Mask user)\u000a    (39 F.Mask user)\u000a    (40 Dwgs.User user)\u000a    (41 Cmts.User user)\u000a    (42 Eco1.User user)\u000a    (43 Eco2.User user)\u000a    (44 Edge.Cuts user)\u000a    (45 Margin user)\u000a    (46 B.CrtYd user)\u000a    (47 F.CrtYd user)\u000a    (48 B.Fab user hide)\u000a    (49 F.Fab user hide)\u000a  )\u000a\u000a  (setup\u000a    (last_trace_width 0.25)\u000a    (user_trace_width 0.35)\u000a    (user_trace_width 0.5)\u000a    (trace_clearance 0.2)\u000a    (zone_clearance 0.2)\u000a    (zone_45_only no)\u000a    (trace_min 0.2)\u000a    (via_size 0.8)\u000a    (via_drill 0.4)\u000a    (via_min_size 0.4)\u000a    (via_min_drill 0.3)\u000a    (uvia_size 0.3)\u000a    (uvia_drill 0.1)\u000a    (uvias_allowed no)\u000a    (uvia_min_size 0.2)\u000a    (uvia_min_drill 0.1)\u000a    (edge_width 0.05)\u000a    (segment_width 0.2)\u000a    (pcb_text_width 0.3)\u000a    (pcb_text_size 1.5 1.5)\u000a    (mod_edge_width 0.12)\u000a    (mod_text_size 1 1)\u000a    (mod_text_width 0.15)\u000a    (pad_size 4 4)\u000a    (pad_drill 4)\u000a    (pad_to_mask_clearance 0)\u000a    (aux_axis_origin 0 0)\u000a    (visible_elements FFFFFF7F)\u000a    (pcbplotparams\u000a      (layerselection 0x010fc_ffffffff)\u000a      (usegerberextensions false)\u000a      (usegerberattributes true)\u000a      (usegerberadvancedattributes true)\u000a      (creategerberjobfile true)\u000a      (excludeedgelayer true)\u000a      (linewidth 0.100000)\u000a      (plotframeref false)\u000a      (viasonmask false)\u000a      (mode 1)\u000a      (useauxorigin false)\u000a      (hpglpennumber 1)\u000a      (hpglpenspeed 20)\u000a      (hpglpendiameter 15.000000)\u000a      (psnegative false)\u000a      (psa4output false)\u000a      (plotreference true)\u000a      (plotvalue true)\u000a      (plotinvisibletext false)\u000a      (padsonsilk false)\u000a      (subtractmaskfromsilk false)\u000a      (outputformat 1)\u000a      (mirror false)\u000a      (drillshape 0)\u000a      (scaleselection 1)\u000a      (outputdirectory ""))\u000a  )\u000a\u000a  (net 0 "")\u000a  (net 1 VCC)\u000a  (net 2 DI)\u000a  (net 3 GND)\u000a  (net 4 DO)\u000a  (net 5 COL)\u000a  (net 6 "Net-(D1-Pad2)")\u000a  (net 7 ROW)\u000a\u000a  (net_class Default "This is the default net class."\u000a    (clearance 0.2)\u000a    (trace_width 0.25)\u000a    (via_dia 0.8)\u000a    (via_drill 0.4)\u000a    (uvia_dia 0.3)\u000a    (uvia_drill 0.1)\u000a    (add_net COL)\u000a    (add_net DI)\u000a    (add_net DO)\u000a    (add_net GND)\u000a    (add_net "Net-(D1-Pad2)")\u000a    (add_net "Net-(D10-Pad2)")\u000a    (add_net "Net-(D11-Pad2)")\u000a    (add_net "Net-(D12-Pad2)")\u000a    (add_net "Net-(D2-Pad2)")\u000a    (add_net "Net-(D3-Pad2)")\u000a    (add_net "Net-(D4-Pad2)")\u000a    (add_net "Net-(D5-Pad2)")\u000a    (add_net "Net-(D6-Pad2)")\u000a    (add_net "Net-(D7-Pad2)")\u000a    (add_net "Net-(D8-Pad2)")\u000a    (add_net "Net-(D9-Pad2)")\u000a    (add_net ROW)\u000a    (add_net VCC)\u000a  )\u000a\u000a  (module Connector_PinHeader_2.54mm:PinHeader_1x06_P2.54mm_Vertical (layer B.Cu) (tedit 59FED5CC) (tstamp 6160FA5A)\u000a    (at 153.675 -80 90)\u000a    (descr "Through hole straight pin header, 1x06, 2.54mm pitch, single row")\u000a    (tags "Through hole pin header THT 1x06 2.54mm single row")\u000a    (path /614F178C/6160C4E2)\u000a    (fp_text reference J4 (at 0 2.33 270) (layer B.SilkS)\u000a      (effects (font (size 1 1) (thickness 0.15)) (justify mirror))\u000a    )\u000a    (fp_text value Conn_01x06 (at 0 -15.03 270) (layer B.Fab)\u000a      (effects (font (size 1 1) (thickness 0.15)) (justify mirror))\u000a    )\u000a    (fp_line (start 1.8 1.8) (end -1.8 1.8) (layer B.CrtYd) (width 0.05))\u000a    (fp_line (start 1.8 -14.5) (end 1.8 1.8) (layer B.CrtYd) (width 0.05))\u000a    (fp_line (start -1.8 -14.5) (end 1.8 -14.5) (layer B.CrtYd) (width 0.05))\u000a    (fp_line (start -1.8 1.8) (end -1.8 -14.5) (layer B.CrtYd) (width 0.05))\u000a    (fp_line (start -1.33 1.33) (end 0 1.33) (layer B.SilkS) (width 0.12))\u000a    (fp_line (start -1.33 0) (end -1.33 1.33) (layer B.SilkS) (width 0.12))\u000a    (fp_line (start -1.33 -1.27) (end 1.33 -1.27) (layer B.SilkS) (width 0.12))\u000a    (fp_line (start 1.33 -1.27) (end 1.33 -14.03) (layer B.SilkS) (width 0.12))\u000a    (fp_line (start -1.33 -1.27) (end -1.33 -14.03) (layer B.SilkS) (width 0.12))\u000a    (fp_line (start -1.33 -14.03) (end 1.33 -14.03) (layer B.SilkS) (width 0.12))\u000a    (fp_line (start -1.27 0.635) (end -0.635 1.27) (layer B.Fab) (width 0.1))\u000a    (fp_line (start -1.27 -13.97) (end -1.27 0.635) (layer B.Fab) (width 0.1))\u000a    (fp_line (start 1.27 -13.97) (end -1.27 -13.97) (layer B.Fab) (width 0.1))\u000a    (fp_line (start 1.27 1.27) (end 1.27 -13.97) (layer B.Fab) (width 0.1))\u000a    (fp_line (start -0.635 1.27) (end 1.27 1.27) (layer B.Fab) (width 0.1))\u000a    (fp_text user %R (at 0 -6.35) (layer B.Fab)\u000a      (effects (font (size 1 1) (thickness 0.15)) (justify mirror))\u000a    )\u000a    (pad 6 thru_hole oval (at 0 -12.7 90) (size 1.7 1.7) (drill 1) (layers *.Cu *.Mask)\u000a      (net 7 ROW))\u000a    (pad 5 thru_hole oval (at 0 -10.16 90) (size 1.7 1.7) (drill 1) (layers *.Cu *.Mask)\u000a      (net 5 COL))\u000a    (pad 4 thru_hole oval (at 0 -7.62 90) (size 1.7 1.7) (drill 1) (layers *.Cu *.Mask)\u000a      (net 2 DI))\u000a    (pad 3 thru_hole oval (at 0 -5.08 90) (size 1.7 1.7) (drill 1) (layers *.Cu *.Mask)\u000a      (net 4 DO))\u000a    (pad 2 thru_hole oval (at 0 -2.54 90) (size 1.7 1.7) (drill 1) (layers *.Cu *.Mask)\u000a      (net 3 GND))\u000a    (pad 1 thru_hole rect (at 0 0 90) (size 1.7 1.7) (drill 1) (layers *.Cu *.Mask)\u000a      (net 1 VCC))\u000a    (model ${KISYS3DMOD}/Connector_PinHeader_2.54mm.3dshapes/PinHeader_1x06_P2.54mm_Vertical.wrl\u000a      (at (xyz 0 0 0))\u000a      (scale (xyz 1 1 1))\u000a      (rotate (xyz 0 0 0))\u000a    )\u000a  )\u000a\u000a  (module Connector_PinHeader_2.54mm:PinHeader_1x06_P2.54mm_Vertical (layer B.Cu) (tedit 59FED5CC) (tstamp 6160FA40)\u000a    (at 140.8 -100.6 270)\u000a    (descr "Through hole straight pin header, 1x06, 2.54mm pitch, single row")\u000a    (tags "Through hole pin header THT 1x06 2.54mm single row")\u000a    (path /614F178C/616079CD)\u000a    (fp_text reference J3 (at 0 2.33 270) (layer B.SilkS)\u000a      (effects (font (size 1 1) (thickness 0.15)) (justify mirror))\u000a    )\u000a    (fp_text value Conn_01x06 (at 0 -15.03 270) (layer B.Fab)\u000a      (effects (font (size 1 1) (thickness 0.15)) (justify mirror))\u000a    )\u000a    (fp_line (start 1.8 1.8) (end -1.8 1.8) (layer B.CrtYd) (width 0.05))\u000a    (fp_line (start 1.8 -14.5) (end 1.8 1.8) (layer B.CrtYd) (width 0.05))\u000a    (fp_line (start -1.8 -14.5) (end 1.8 -14.5) (layer B.CrtYd) (width 0.05))\u000a    (fp_line (start -1.8 1.8) (end -1.8 -14.5) (layer B.CrtYd) (width 0.05))\u000a    (fp_line (start -1.33 1.33) (end 0 1.33) (layer B.SilkS) (width 0.12))\u000a    (fp_line (start -1.33 0) (end -1.33 1.33) (layer B.SilkS) (width 0.12))\u000a    (fp_line (start -1.33 -1.27) (end 1.33 -1.27) (layer B.SilkS) (width 0.12))\u000a    (fp_line (start 1.33 -1.27) (end 1.33 -14.03) (layer B.SilkS) (width 0.12))\u000a    (fp_line (start -1.33 -1.27) (end -1.33 -14.03) (layer B.SilkS) (width 0.12))\u000a    (fp_line (start -1.33 -14.03) (end 1.33 -14.03) (layer B.SilkS) (width 0.12))\u000a    (fp_line (start -1.27 0.635) (end -0.635 1.27) (layer B.Fab) (width 0.1))\u000a    (fp_line (start -1.27 -13.97) (end -1.27 0.635) (layer B.Fab) (width 0.1))\u000a    (fp_line (start 1.27 -13.97) (end -1.27 -13.97) (layer B.Fab) (width 0.1))\u000a    (fp_line (start 1.27 1.27) (end 1.27 -13.97) (layer B.Fab) (width 0.1))\u000a    (fp_line (start -0.635 1.27) (end 1.27 1.27) (layer B.Fab) (width 0.1))\u000a    (fp_text user %R (at 0 -6.35) (layer B.Fab)\u000a      (effects (font (size 1 1) (thickness 0.15)) (justify mirror))\u000a    )\u000a    (pad 6 thru_hole oval (at 0 -12.7 270) (size 1.7 1.7) (drill 1) (layers *.Cu *.Mask)\u000a      (net 7 ROW))\u000a    (pad 5 thru_hole oval (at 0 -10.16 270) (size 1.7 1.7) (drill 1) (layers *.Cu *.Mask)\u000a      (net 5 COL))\u000a    (pad 4 thru_hole oval (at 0 -7.62 270) (size 1.7 1.7) (drill 1) (layers *.Cu *.Mask)\u000a      (net 2 DI))\u000a    (pad 3 thru_hole oval (at 0 -5.08 270) (size 1.7 1.7) (drill 1) (layers *.Cu *.Mask)\u000a      (net 4 DO))\u000a    (pad 2 thru_hole oval (at 0 -2.54 270) (size 1.7 1.7) (drill 1) (layers *.Cu *.Mask)\u000a      (net 3 GND))\u000a    (pad 1 thru_hole rect (at 0 0 270) (size 1.7 1.7) (drill 1) (layers *.Cu *.Mask)\u000a      (net 1 VCC))\u000a    (model ${KISYS3DMOD}/Connector_PinHeader_2.54mm.3dshapes/PinHeader_1x06_P2.54mm_Vertical.wrl\u000a      (at (xyz 0 0 0))\u000a      (scale (xyz 1 1 1))\u000a      (rotate (xyz 0 0 0))\u000a    )\u000a  )\u000a\u000a  (module Connector_PinHeader_2.54mm:PinHeader_1x06_P2.54mm_Vertical (layer B.Cu) (tedit 59FED5CC) (tstamp 6160FA26)\u000a    (at 156.825 -84)\u000a    (descr "Through hole straight pin header, 1x06, 2.54mm pitch, single row")\u000a    (tags "Through hole pin header THT 1x06 2.54mm single row")\u000a    (path /614F178C/6160BF15)\u000a    (fp_text reference J2 (at 0 2.33) (layer B.SilkS)\u000a      (effects (font (size 1 1) (thickness 0.15)) (justify mirror))\u000a    )\u000a    (fp_text value Conn_01x06 (at 0 -15.03) (layer B.Fab)\u000a      (effects (font (size 1 1) (thickness 0.15)) (justify mirror))\u000a    )\u000a    (fp_line (start 1.8 1.8) (end -1.8 1.8) (layer B.CrtYd) (width 0.05))\u000a    (fp_line (start 1.8 -14.5) (end 1.8 1.8) (layer B.CrtYd) (width 0.05))\u000a    (fp_line (start -1.8 -14.5) (end 1.8 -14.5) (layer B.CrtYd) (width 0.05))\u000a    (fp_line (start -1.8 1.8) (end -1.8 -14.5) (layer B.CrtYd) (width 0.05))\u000a    (fp_line (start -1.33 1.33) (end 0 1.33) (layer B.SilkS) (width 0.12))\u000a    (fp_line (start -1.33 0) (end -1.33 1.33) (layer B.SilkS) (width 0.12))\u000a    (fp_line (start -1.33 -1.27) (end 1.33 -1.27) (layer B.SilkS) (width 0.12))\u000a    (fp_line (start 1.33 -1.27) (end 1.33 -14.03) (layer B.SilkS) (width 0.12))\u000a    (fp_line (start -1.33 -1.27) (end -1.33 -14.03) (layer B.SilkS) (width 0.12))\u000a    (fp_line (start -1.33 -14.03) (end 1.33 -14.03) (layer B.SilkS) (width 0.12))\u000a    (fp_line (start -1.27 0.635) (end -0.635 1.27) (layer B.Fab) (width 0.1))\u000a    (fp_line (start -1.27 -13.97) (end -1.27 0.635) (layer B.Fab) (width 0.1))\u000a    (fp_line (start 1.27 -13.97) (end -1.27 -13.97) (layer B.Fab) (width 0.1))\u000a    (fp_line (start 1.27 1.27) (end 1.27 -13.97) (layer B.Fab) (width 0.1))\u000a    (fp_line (start -0.635 1.27) (end 1.27 1.27) (layer B.Fab) (width 0.1))\u000a    (fp_text user %R (at 0 -6.35 270) (layer B.Fab)\u000a      (effects (font (size 1 1) (thickness 0.15)) (justify mirror))\u000a    )\u000a    (pad 6 thru_hole oval (at 0 -12.7) (size 1.7 1.7) (drill 1) (layers *.Cu *.Mask)\u000a      (net 7 ROW))\u000a    (pad 5 thru_hole oval (at 0 -10.16) (size 1.7 1.7) (drill 1) (layers *.Cu *.Mask)\u000a      (net 5 COL))\u000a    (pad 4 thru_hole oval (at 0 -7.62) (size 1.7 1.7) (drill 1) (layers *.Cu *.Mask)\u000a      (net 2 DI))\u000a    (pad 3 thru_hole oval (at 0 -5.08) (size 1.7 1.7) (drill 1) (layers *.Cu *.Mask)\u000a      (net 4 DO))\u000a    (pad 2 thru_hole oval (at 0 -2.54) (size 1.7 1.7) (drill 1) (layers *.Cu *.Mask)\u000a      (net 3 GND))\u000a    (pad 1 thru_hole rect (at 0 0) (size 1.7 1.7) (drill 1) (layers *.Cu *.Mask)\u000a      (net 1 VCC))\u000a    (model ${KISYS3DMOD}/Connector_PinHeader_2.54mm.3dshapes/PinHeader_1x06_P2.54mm_Vertical.wrl\u000a      (at (xyz 0 0 0))\u000a      (scale (xyz 1 1 1))\u000a      (rotate (xyz 0 0 0))\u000a    )\u000a  )\u000a\u000a  (module Connector_PinHeader_2.54mm:PinHeader_1x06_P2.54mm_Vertical (layer B.Cu) (tedit 59FED5CC) (tstamp 61610AA4)\u000a    (at 137.75 -96.325 180)\u000a    (descr "Through hole straight pin header, 1x06, 2.54mm pitch, single row")\u000a    (tags "Through hole pin header THT 1x06 2.54mm single row")\u000a    (path /614F178C/6160B2CF)\u000a    (fp_text reference J1 (at 0 2.33) (layer B.SilkS)\u000a      (effects (font (size 1 1) (thickness 0.15)) (justify mirror))\u000a    )\u000a    (fp_text value Conn_01x06 (at 0 -15.03) (layer B.Fab)\u000a      (effects (font (size 1 1) (thickness 0.15)) (justify mirror))\u000a    )\u000a    (fp_line (start 1.8 1.8) (end -1.8 1.8) (layer B.CrtYd) (width 0.05))\u000a    (fp_line (start 1.8 -14.5) (end 1.8 1.8) (layer B.CrtYd) (width 0.05))\u000a    (fp_line (start -1.8 -14.5) (end 1.8 -14.5) (layer B.CrtYd) (width 0.05))\u000a    (fp_line (start -1.8 1.8) (end -1.8 -14.5) (layer B.CrtYd) (width 0.05))\u000a    (fp_line (start -1.33 1.33) (end 0 1.33) (layer B.SilkS) (width 0.12))\u000a    (fp_line (start -1.33 0) (end -1.33 1.33) (layer B.SilkS) (width 0.12))\u000a    (fp_line (start -1.33 -1.27) (end 1.33 -1.27) (layer B.SilkS) (width 0.12))\u000a    (fp_line (start 1.33 -1.27) (end 1.33 -14.03) (layer B.SilkS) (width 0.12))\u000a    (fp_line (start -1.33 -1.27) (end -1.33 -14.03) (layer B.SilkS) (width 0.12))\u000a    (fp_line (start -1.33 -14.03) (end 1.33 -14.03) (layer B.SilkS) (width 0.12))\u000a    (fp_line (start -1.27 0.635) (end -0.635 1.27) (layer B.Fab) (width 0.1))\u000a    (fp_line (start -1.27 -13.97) (end -1.27 0.635) (layer B.Fab) (width 0.1))\u000a    (fp_line (start 1.27 -13.97) (end -1.27 -13.97) (layer B.Fab) (width 0.1))\u000a    (fp_line (start 1.27 1.27) (end 1.27 -13.97) (layer B.Fab) (width 0.1))\u000a    (fp_line (start -0.635 1.27) (end 1.27 1.27) (layer B.Fab) (width 0.1))\u000a    (fp_text user %R (at 0 -6.35 270) (layer B.Fab)\u000a      (effects (font (size 1 1) (thickness 0.15)) (justify mirror))\u000a    )\u000a    (pad 6 thru_hole oval (at 0 -12.7 180) (size 1.7 1.7) (drill 1) (layers *.Cu *.Mask)\u000a      (net 7 ROW))\u000a    (pad 5 thru_hole oval (at 0 -10.16 180) (size 1.7 1.7) (drill 1) (layers *.Cu *.Mask)\u000a      (net 5 COL))\u000a    (pad 4 thru_hole oval (at 0 -7.62 180) (size 1.7 1.7) (drill 1) (layers *.Cu *.Mask)\u000a      (net 2 DI))\u000a    (pad 3 thru_hole oval (at 0 -5.08 180) (size 1.7 1.7) (drill 1) (layers *.Cu *.Mask)\u000a      (net 4 DO))\u000a    (pad 2 thru_hole oval (at 0 -2.54 180) (size 1.7 1.7) (drill 1) (layers *.Cu *.Mask)\u000a      (net 3 GND))\u000a    (pad 1 thru_hole rect (at 0 0 180) (size 1.7 1.7) (drill 1) (layers *.Cu *.Mask)\u000a      (net 1 VCC))\u000a    (model ${KISYS3DMOD}/Connector_PinHeader_2.54mm.3dshapes/PinHeader_1x06_P2.54mm_Vertical.wrl\u000a      (at (xyz 0 0 0))\u000a      (scale (xyz 1 1 1))\u000a      (rotate (xyz 0 0 0))\u000a    )\u000a  )\u000a\u000a  (module WingCustomParts:ws2812b-2020-2.0mmx2.0mm (layer F.Cu) (tedit 61480F0C) (tstamp 615FF575)\u000a    (at 147.3 -84.5)\u000a    (path /614F178C/614F2C22)\u000a    (fp_text reference WS2 (at 0 -4.5) (layer F.SilkS)\u000a      (effects (font (size 1 1) (thickness 0.15)))\u000a    )\u000a    (fp_text value WS2812B-2020-JLCPCB (at 0 -5.5) (layer F.Fab)\u000a      (effects (font (size 1 1) (thickness 0.15)))\u000a    )\u000a    (fp_line (start -1.265 -0.2) (end 1.265 -0.2) (layer Dwgs.User) (width 0.02))\u000a    (fp_line (start 0.55 -1) (end 0.55 1) (layer Dwgs.User) (width 0.02))\u000a    (fp_line (start 1.265 0.2) (end -1.265 0.2) (layer Dwgs.User) (width 0.02))\u000a    (fp_line (start -1.265 -0.2) (end -1.265 0.2) (layer Dwgs.User) (width 0.02))\u000a    (fp_line (start 1.265 -0.2) (end 1.265 0.2) (layer Dwgs.User) (width 0.02))\u000a    (fp_line (start 0.55 -1) (end -0.55 -1) (layer Dwgs.User) (width 0.02))\u000a    (fp_line (start -0.55 -1) (end -0.55 1) (layer Dwgs.User) (width 0.02))\u000a    (fp_line (start -0.55 1) (end 0.55 1) (layer Dwgs.User) (width 0.02))\u000a    (fp_poly (pts (xy 0.55 1) (xy 0.35 1) (xy 0.35 -1) (xy 0.55 -1)) (layer Dwgs.User) (width 0.02))\u000a    (fp_line (start 1.3 -1.1) (end -1.4 -1.1) (layer F.CrtYd) (width 0.02))\u000a    (fp_line (start -1.4 -1.1) (end -1.4 1.1) (layer F.CrtYd) (width 0.02))\u000a    (fp_line (start -1.4 1.1) (end 1.4 1.1) (layer F.CrtYd) (width 0.02))\u000a    (fp_line (start 1.4 1.1) (end 1.4 -1.1) (layer F.CrtYd) (width 0.02))\u000a    (fp_line (start 1.4 -1.1) (end 1.3 -1.1) (layer F.CrtYd) (width 0.02))\u000a    (pad 4 smd rect (at -0.92 0.56 180) (size 0.7 0.7) (layers F.Cu F.Paste F.Mask)\u000a      (net 1 VCC))\u000a    (pad 3 smd rect (at -0.92 -0.56 180) (size 0.7 0.7) (layers F.Cu F.Paste F.Mask)\u000a      (net 2 DI))\u000a    (pad 2 smd rect (at 0.92 -0.56 180) (size 0.7 0.7) (layers F.Cu F.Paste F.Mask)\u000a      (net 3 GND))\u000a    (pad 1 smd rect (at 0.92 0.56 180) (size 0.7 0.7) (layers F.Cu F.Paste F.Mask)\u000a      (net 4 DO))\u000a    (model /Users/wingtangwong/Documents/KICAD/LIBRARY/3D-MODELS/ws2812c-2020-led-1.snapshot.7/LED_WS2812_2020.step\u000a      (at (xyz 0 0 0))\u000a      (scale (xyz 1 1 1))\u000a      (rotate (xyz 0 0 0))\u000a    )\u000a  )\u000a\u000a  (module cherry:SW_Cherry_MX_1.00u_PCB (layer F.Cu) (tedit 5A02FE24) (tstamp 615FFCF0)\u000a    (at 149.8 -94.9)\u000a    (descr "Cherry MX keyswitch, 1.00u, PCB mount, http://cherryamericas.com/wp-content/uploads/2014/12/mx_cat.pdf")\u000a    (tags "Cherry MX keyswitch 1.00u PCB")\u000a    (path /614F178C/614F0979)\u000a    (fp_text reference SW2 (at -2.54 -2.794) (layer F.SilkS)\u000a      (effects (font (size 1 1) (thickness 0.15)))\u000a    )\u000a    (fp_text value SW_Push (at -2.54 12.954) (layer F.Fab)\u000a      (effects (font (size 1 1) (thickness 0.15)))\u000a    )\u000a    (fp_line (start -9.525 12.065) (end -9.525 -1.905) (layer F.SilkS) (width 0.12))\u000a    (fp_line (start 4.445 12.065) (end -9.525 12.065) (layer F.SilkS) (width 0.12))\u000a    (fp_line (start 4.445 -1.905) (end 4.445 12.065) (layer F.SilkS) (width 0.12))\u000a    (fp_line (start -9.525 -1.905) (end 4.445 -1.905) (layer F.SilkS) (width 0.12))\u000a    (fp_line (start -12.065 14.605) (end -12.065 -4.445) (layer Dwgs.User) (width 0.15))\u000a    (fp_line (start 6.985 14.605) (end -12.065 14.605) (layer Dwgs.User) (width 0.15))\u000a    (fp_line (start 6.985 -4.445) (end 6.985 14.605) (layer Dwgs.User) (width 0.15))\u000a    (fp_line (start -12.065 -4.445) (end 6.985 -4.445) (layer Dwgs.User) (width 0.15))\u000a    (fp_line (start -9.14 -1.52) (end 4.06 -1.52) (layer F.CrtYd) (width 0.05))\u000a    (fp_line (start 4.06 -1.52) (end 4.06 11.68) (layer F.CrtYd) (width 0.05))\u000a    (fp_line (start 4.06 11.68) (end -9.14 11.68) (layer F.CrtYd) (width 0.05))\u000a    (fp_line (start -9.14 11.68) (end -9.14 -1.52) (layer F.CrtYd) (width 0.05))\u000a    (fp_line (start -8.89 11.43) (end -8.89 -1.27) (layer F.Fab) (width 0.1))\u000a    (fp_line (start 3.81 11.43) (end -8.89 11.43) (layer F.Fab) (width 0.1))\u000a    (fp_line (start 3.81 -1.27) (end 3.81 11.43) (layer F.Fab) (width 0.1))\u000a    (fp_line (start -8.89 -1.27) (end 3.81 -1.27) (layer F.Fab) (width 0.1))\u000a    (fp_text user %R (at -2.54 -2.794) (layer F.Fab)\u000a      (effects (font (size 1 1) (thickness 0.15)))\u000a    )\u000a    (pad "" np_thru_hole circle (at 2.54 5.08) (size 1.7 1.7) (drill 1.7) (layers *.Cu *.Mask))\u000a    (pad "" np_thru_hole circle (at -7.62 5.08) (size 1.7 1.7) (drill 1.7) (layers *.Cu *.Mask))\u000a    (pad "" np_thru_hole circle (at -2.54 5.08) (size 4 4) (drill 4) (layers *.Cu *.Mask))\u000a    (pad 2 thru_hole circle (at -6.35 2.54) (size 2.2 2.2) (drill 1.5) (layers *.Cu *.Mask)\u000a      (net 5 COL))\u000a    (pad 1 thru_hole circle (at 0 0) (size 2.2 2.2) (drill 1.5) (layers *.Cu *.Mask)\u000a      (net 6 "Net-(D1-Pad2)"))\u000a    (model /Users/wingtangwong/Documents/KICAD/LIBRARY/3D-MODELS/cherry-mx-1.snapshot.3/asm_mx_asm_PCB.stp\u000a      (offset (xyz -2.25 -4.8 5))\u000a      (scale (xyz 1 1 1))\u000a      (rotate (xyz 180 0 90))\u000a    )\u000a  )\u000a\u000a  (module Diode_SMD:D_SOD-123 (layer F.Cu) (tedit 58645DC7) (tstamp 615FFB3D)\u000a    (at 152.175 -98 180)\u000a    (descr SOD-123)\u000a    (tags SOD-123)\u000a    (path /614F178C/615FEEAC)\u000a    (attr smd)\u000a    (fp_text reference D1 (at 0 -2) (layer F.SilkS)\u000a      (effects (font (size 1 1) (thickness 0.15)))\u000a    )\u000a    (fp_text value 1N4148W (at 0 2.1) (layer F.Fab)\u000a      (effects (font (size 1 1) (thickness 0.15)))\u000a    )\u000a    (fp_line (start -2.25 -1) (end 1.65 -1) (layer F.SilkS) (width 0.12))\u000a    (fp_line (start -2.25 1) (end 1.65 1) (layer F.SilkS) (width 0.12))\u000a    (fp_line (start -2.35 -1.15) (end -2.35 1.15) (layer F.CrtYd) (width 0.05))\u000a    (fp_line (start 2.35 1.15) (end -2.35 1.15) (layer F.CrtYd) (width 0.05))\u000a    (fp_line (start 2.35 -1.15) (end 2.35 1.15) (layer F.CrtYd) (width 0.05))\u000a    (fp_line (start -2.35 -1.15) (end 2.35 -1.15) (layer F.CrtYd) (width 0.05))\u000a    (fp_line (start -1.4 -0.9) (end 1.4 -0.9) (layer F.Fab) (width 0.1))\u000a    (fp_line (start 1.4 -0.9) (end 1.4 0.9) (layer F.Fab) (width 0.1))\u000a    (fp_line (start 1.4 0.9) (end -1.4 0.9) (layer F.Fab) (width 0.1))\u000a    (fp_line (start -1.4 0.9) (end -1.4 -0.9) (layer F.Fab) (width 0.1))\u000a    (fp_line (start -0.75 0) (end -0.35 0) (layer F.Fab) (width 0.1))\u000a    (fp_line (start -0.35 0) (end -0.35 -0.55) (layer F.Fab) (width 0.1))\u000a    (fp_line (start -0.35 0) (end -0.35 0.55) (layer F.Fab) (width 0.1))\u000a    (fp_line (start -0.35 0) (end 0.25 -0.4) (layer F.Fab) (width 0.1))\u000a    (fp_line (start 0.25 -0.4) (end 0.25 0.4) (layer F.Fab) (width 0.1))\u000a    (fp_line (start 0.25 0.4) (end -0.35 0) (layer F.Fab) (width 0.1))\u000a    (fp_line (start 0.25 0) (end 0.75 0) (layer F.Fab) (width 0.1))\u000a    (fp_line (start -2.25 -1) (end -2.25 1) (layer F.SilkS) (width 0.12))\u000a    (fp_text user %R (at 0 -2) (layer F.Fab)\u000a      (effects (font (size 1 1) (thickness 0.15)))\u000a    )\u000a    (pad 2 smd rect (at 1.65 0 180) (size 0.9 1.2) (layers F.Cu F.Paste F.Mask)\u000a      (net 6 "Net-(D1-Pad2)"))\u000a    (pad 1 smd rect (at -1.65 0 180) (size 0.9 1.2) (layers F.Cu F.Paste F.Mask)\u000a      (net 7 ROW))\u000a    (model ${KISYS3DMOD}/Diode_SMD.3dshapes/D_SOD-123.wrl\u000a      (at (xyz 0 0 0))\u000a      (scale (xyz 1 1 1))\u000a      (rotate (xyz 0 0 0))\u000a    )\u000a  )\u000a\u000a  (gr_arc (start 138.95 -81.2) (end 136.25 -81.2) (angle -90) (layer Edge.Cuts) (width 0.05) (tstamp 61612686))\u000a  (gr_arc (start 138.95 -99.3) (end 138.95 -102) (angle -90) (layer Edge.Cuts) (width 0.05))\u000a  (gr_line (start 136.25 -81.2) (end 136.25 -99.3) (layer Edge.Cuts) (width 0.05) (tstamp 616121DA))\u000a  (gr_line (start 156 -78.5) (end 138.95 -78.5) (layer Edge.Cuts) (width 0.05))\u000a  (gr_line (start 138.95 -102) (end 156 -102) (layer Edge.Cuts) (width 0.05))\u000a\u000a  (segment (start 138.825 -100.6) (end 140.8 -100.6) (width 0.35) (layer F.Cu) (net 1))\u000a  (segment (start 137.75 -99.525) (end 138.825 -100.6) (width 0.35) (layer F.Cu) (net 1))\u000a  (segment (start 137.75 -96.325) (end 137.75 -99.525) (width 0.35) (layer F.Cu) (net 1))\u000a  (segment (start 153.675 -80) (end 155.325 -80) (width 0.35) (layer F.Cu) (net 1))\u000a  (segment (start 156.825 -81.5) (end 156.825 -84) (width 0.35) (layer F.Cu) (net 1))\u000a  (segment (start 155.325 -80) (end 156.825 -81.5) (width 0.35) (layer F.Cu) (net 1))\u000a  (via (at 145.125 -84) (size 0.8) (drill 0.4) (layers F.Cu B.Cu) (net 1))\u000a  (segment (start 146.32 -84) (end 146.38 -83.94) (width 0.35) (layer F.Cu) (net 1))\u000a  (segment (start 145.125 -84) (end 146.32 -84) (width 0.35) (layer F.Cu) (net 1))\u000a  (segment (start 140.7 -96.325) (end 140.8 -96.225) (width 0.35) (layer B.Cu) (net 1))\u000a  (segment (start 137.75 -96.325) (end 140.7 -96.325) (width 0.35) (layer B.Cu) (net 1))\u000a  (segment (start 140.8 -100.6) (end 140.8 -96.225) (width 0.35) (layer B.Cu) (net 1))\u000a  (segment (start 140.8 -96.225) (end 142.25 -96.225) (width 0.35) (layer B.Cu) (net 1))\u000a  (segment (start 144.884999 -90.960001) (end 144.884999 -88.679999) (width 0.35) (layer B.Cu) (net 1))\u000a  (segment (start 144.925001 -91.000003) (end 144.884999 -90.960001) (width 0.35) (layer B.Cu) (net 1))\u000a  (segment (start 144.925001 -93.549999) (end 144.925001 -91.000003) (width 0.35) (layer B.Cu) (net 1))\u000a  (segment (start 142.25 -96.225) (end 144.925001 -93.549999) (width 0.35) (layer B.Cu) (net 1))\u000a  (segment (start 151.7 -86.675) (end 154.375 -84) (width 0.35) (layer B.Cu) (net 1))\u000a  (segment (start 146.889998 -86.675) (end 151.7 -86.675) (width 0.35) (layer B.Cu) (net 1))\u000a  (segment (start 154.375 -84) (end 156.825 -84) (width 0.35) (layer B.Cu) (net 1))\u000a  (segment (start 145.125 -87.725) (end 145.482499 -88.082499) (width 0.35) (layer B.Cu) (net 1))\u000a  (segment (start 145.125 -84) (end 145.125 -87.725) (width 0.35) (layer B.Cu) (net 1))\u000a  (segment (start 145.482499 -88.082499) (end 146.889998 -86.675) (width 0.35) (layer B.Cu) (net 1))\u000a  (segment (start 144.884999 -88.679999) (end 145.482499 -88.082499) (width 0.35) (layer B.Cu) (net 1))\u000a  (segment (start 153.675 -80) (end 150.9 -82.775) (width 0.35) (layer B.Cu) (net 1))\u000a  (segment (start 146.35 -82.775) (end 145.125 -84) (width 0.35) (layer B.Cu) (net 1))\u000a  (segment (start 150.9 -82.775) (end 146.35 -82.775) (width 0.35) (layer B.Cu) (net 1))\u000a  (segment (start 137.75 -88.705) (end 139.275 -90.23) (width 0.35) (layer F.Cu) (net 2))\u000a  (segment (start 139.275 -90.23) (end 139.275 -91.55) (width 0.35) (layer F.Cu) (net 2))\u000a  (segment (start 139.275 -91.55) (end 140.875 -93.15) (width 0.35) (layer F.Cu) (net 2))\u000a  (segment (start 140.875 -93.15) (end 140.875 -96.675) (width 0.35) (layer F.Cu) (net 2))\u000a  (segment (start 140.875 -96.675) (end 141.5 -97.3) (width 0.35) (layer F.Cu) (net 2))\u000a  (segment (start 141.5 -97.3) (end 144.393002 -97.3) (width 0.35) (layer F.Cu) (net 2))\u000a  (segment (start 146.335999 -98.515999) (end 145.609001 -98.515999) (width 0.35) (layer F.Cu) (net 2))\u000a  (segment (start 148.42 -100.6) (end 146.335999 -98.515999) (width 0.35) (layer F.Cu) (net 2))\u000a  (segment (start 144.393002 -97.3) (end 145.609001 -98.515999) (width 0.35) (layer F.Cu) (net 2))\u000a  (segment (start 151.114999 -90.408001) (end 151.114999 -89.794999) (width 0.35) (layer F.Cu) (net 2))\u000a  (segment (start 152.326998 -91.62) (end 151.114999 -90.408001) (width 0.35) (layer F.Cu) (net 2))\u000a  (segment (start 156.825 -91.62) (end 152.326998 -91.62) (width 0.35) (layer F.Cu) (net 2))\u000a  (segment (start 148.42 -100.6) (end 151.725 -97.295) (width 0.35) (layer B.Cu) (net 2))\u000a  (segment (start 151.725 -97.295) (end 151.725 -96.325) (width 0.35) (layer B.Cu) (net 2))\u000a  (segment (start 156.43 -91.62) (end 156.825 -91.62) (width 0.35) (layer B.Cu) (net 2))\u000a  (segment (start 151.725 -96.325) (end 156.43 -91.62) (width 0.35) (layer B.Cu) (net 2))\u000a  (segment (start 146.38 -85.06) (end 146.38 -85.955) (width 0.35) (layer F.Cu) (net 2))\u000a  (segment (start 147.2025 -86.7775) (end 148.0975 -86.7775) (width 0.35) (layer F.Cu) (net 2))\u000a  (segment (start 146.38 -85.955) (end 147.2025 -86.7775) (width 0.35) (layer F.Cu) (net 2))\u000a  (segment (start 151.114999 -89.794999) (end 148.0975 -86.7775) (width 0.35) (layer F.Cu) (net 2))\u000a  (segment (start 147.105001 -81.050001) (end 146.055 -80) (width 0.35) (layer F.Cu) (net 2))\u000a  (segment (start 147.105001 -84.994999) (end 147.105001 -81.050001) (width 0.35) (layer F.Cu) (net 2))\u000a  (segment (start 147.04 -85.06) (end 147.105001 -84.994999) (width 0.35) (layer F.Cu) (net 2))\u000a  (segment (start 146.38 -85.06) (end 147.04 -85.06) (width 0.35) (layer F.Cu) (net 2))\u000a  (segment (start 138.952081 -88.705) (end 139.34998 -88.307101) (width 0.35) (layer B.Cu) (net 2))\u000a  (segment (start 139.34998 -88.307101) (end 139.34998 -87.072358) (width 0.35) (layer B.Cu) (net 2))\u000a  (segment (start 137.75 -88.705) (end 138.952081 -88.705) (width 0.35) (layer B.Cu) (net 2))\u000a  (segment (start 143.872169 -81.6) (end 144.822338 -81.6) (width 0.35) (layer B.Cu) (net 2))\u000a  (segment (start 142.551479 -82.92069) (end 143.872169 -81.6) (width 0.35) (layer B.Cu) (net 2))\u000a  (segment (start 142.551479 -83.870859) (end 142.551479 -82.92069) (width 0.35) (layer B.Cu) (net 2))\u000a  (segment (start 139.34998 -87.072358) (end 142.551479 -83.870859) (width 0.35) (layer B.Cu) (net 2))\u000a  (segment (start 146.055 -80.367338) (end 146.055 -80) (width 0.35) (layer B.Cu) (net 2))\u000a  (segment (start 144.822338 -81.6) (end 146.055 -80.367338) (width 0.35) (layer B.Cu) (net 2))\u000a  (via (at 138.04 -80.68) (size 0.8) (drill 0.4) (layers F.Cu B.Cu) (net 3))\u000a  (via (at 137.6 -100.59) (size 0.8) (drill 0.4) (layers F.Cu B.Cu) (net 3))\u000a  (segment (start 143.34 -100.6) (end 143.34 -99.54) (width 0.35) (layer F.Cu) (net 3))\u000a  (segment (start 143.34 -99.54) (end 142.7 -98.9) (width 0.35) (layer F.Cu) (net 3))\u000a  (segment (start 142.7 -98.9) (end 140.025 -98.9) (width 0.35) (layer F.Cu) (net 3))\u000a  (segment (start 140.025 -98.9) (end 139.1 -97.975) (width 0.35) (layer F.Cu) (net 3))\u000a  (segment (start 139.1 -95.135) (end 137.75 -93.785) (width 0.35) (layer F.Cu) (net 3))\u000a  (segment (start 139.1 -97.975) (end 139.1 -95.135) (width 0.35) (layer F.Cu) (net 3))\u000a  (segment (start 151.135 -80.85) (end 151.135 -80) (width 0.35) (layer F.Cu) (net 3))\u000a  (segment (start 156.825 -86.54) (end 151.135 -80.85) (width 0.35) (layer F.Cu) (net 3))\u000a  (segment (start 153.806998 -86.54) (end 156.825 -86.54) (width 0.35) (layer B.Cu) (net 3))\u000a  (segment (start 151.114999 -89.231999) (end 153.806998 -86.54) (width 0.35) (layer B.Cu) (net 3))\u000a  (segment (start 143.34 -97.255002) (end 144.222501 -96.372501) (width 0.35) (layer B.Cu) (net 3))\u000a  (segment (start 151.114999 -89.480003) (end 151.114999 -89.231999) (width 0.35) (layer B.Cu) (net 3))\u000a  (segment (start 143.34 -100.6) (end 143.34 -97.255002) (width 0.35) (layer B.Cu) (net 3))\u000a  (segment (start 138.865 -93.785) (end 137.75 -93.785) (width 0.35) (layer B.Cu) (net 3))\u000a  (segment (start 140.45 -92.2) (end 138.865 -93.785) (width 0.35) (layer B.Cu) (net 3))\u000a  (segment (start 140.45 -87.527998) (end 140.45 -92.2) (width 0.35) (layer B.Cu) (net 3))\u000a  (segment (start 149.335 -81.8) (end 146.177998 -81.8) (width 0.35) (layer B.Cu) (net 3))\u000a  (segment (start 151.135 -80) (end 149.335 -81.8) (width 0.35) (layer B.Cu) (net 3))\u000a  (segment (start 143.651499 -84.326499) (end 143.651499 -83.448501) (width 0.35) (layer B.Cu) (net 3))\u000a  (segment (start 143.651499 -84.326499) (end 140.45 -87.527998) (width 0.35) (layer B.Cu) (net 3))\u000a  (segment (start 144.361001 -82.738999) (end 145.238999 -82.738999) (width 0.35) (layer B.Cu) (net 3))\u000a  (segment (start 143.651499 -83.448501) (end 144.361001 -82.738999) (width 0.35) (layer B.Cu) (net 3))\u000a  (segment (start 146.177998 -81.8) (end 145.238999 -82.738999) (width 0.35) (layer B.Cu) (net 3))\u000a  (segment (start 157.9175 -87.6325) (end 156.825 -86.54) (width 0.35) (layer F.Cu) (net 3))\u000a  (segment (start 158.050001 -87.765001) (end 157.9175 -87.6325) (width 0.35) (layer F.Cu) (net 3))\u000a  (segment (start 158.050001 -89.668001) (end 158.050001 -87.765001) (width 0.35) (layer F.Cu) (net 3))\u000a  (segment (start 157.413001 -90.305001) (end 158.050001 -89.668001) (width 0.35) (layer F.Cu) (net 3))\u000a  (segment (start 155.630001 -90.305001) (end 157.413001 -90.305001) (width 0.35) (layer F.Cu) (net 3))\u000a  (segment (start 150.385 -85.06) (end 155.630001 -90.305001) (width 0.35) (layer F.Cu) (net 3))\u000a  (segment (start 148.22 -85.06) (end 150.385 -85.06) (width 0.35) (layer F.Cu) (net 3))\u000a  (via (at 138.94 -98.96) (size 0.8) (drill 0.4) (layers F.Cu B.Cu) (net 3))\u000a  (via (at 140.42 -82.91) (size 0.8) (drill 0.4) (layers F.Cu B.Cu) (net 3))\u000a  (via (at 157.18 -79.95) (size 0.8) (drill 0.4) (layers F.Cu B.Cu) (net 3))\u000a  (via (at 155.21 -81.73) (size 0.8) (drill 0.4) (layers F.Cu B.Cu) (net 3))\u000a  (via (at 151.88 -93.38) (size 0.8) (drill 0.4) (layers F.Cu B.Cu) (net 3))\u000a  (via (at 148.21 -96.95) (size 0.8) (drill 0.4) (layers F.Cu B.Cu) (net 3))\u000a  (via (at 146.61 -92.87) (size 0.8) (drill 0.4) (layers F.Cu B.Cu) (net 3))\u000a  (via (at 157.1 -100.43) (size 0.8) (drill 0.4) (layers F.Cu B.Cu) (net 3))\u000a  (via (at 155.15 -96.44) (size 0.8) (drill 0.4) (layers F.Cu B.Cu) (net 3))\u000a  (via (at 141.91 -94.1) (size 0.8) (drill 0.4) (layers F.Cu B.Cu) (net 3))\u000a  (segment (start 144.222501 -96.372501) (end 151.114999 -89.480003) (width 0.35) (layer B.Cu) (net 3) (tstamp 61612B3C))\u000a  (via (at 144.222501 -96.372501) (size 0.8) (drill 0.4) (layers F.Cu B.Cu) (net 3))\u000a  (via (at 152.65 -98.72) (size 0.8) (drill 0.4) (layers F.Cu B.Cu) (net 3))\u000a  (via (at 155.35 -99) (size 0.8) (drill 0.4) (layers F.Cu B.Cu) (net 3))\u000a  (segment (start 145.88 -100.6) (end 143.405 -98.125) (width 0.35) (layer F.Cu) (net 4))\u000a  (segment (start 143.405 -98.125) (end 140.9 -98.125) (width 0.35) (layer F.Cu) (net 4))\u000a  (segment (start 140.9 -98.125) (end 139.9 -97.125) (width 0.35) (layer F.Cu) (net 4))\u000a  (segment (start 139.9 -97.125) (end 139.9 -93.275) (width 0.35) (layer F.Cu) (net 4))\u000a  (segment (start 137.87 -91.245) (end 137.75 -91.245) (width 0.35) (layer F.Cu) (net 4))\u000a  (segment (start 139.9 -93.275) (end 137.87 -91.245) (width 0.35) (layer F.Cu) (net 4))\u000a  (segment (start 148.595 -80.85) (end 156.825 -89.08) (width 0.35) (layer F.Cu) (net 4))\u000a  (segment (start 148.595 -80) (end 148.595 -80.85) (width 0.35) (layer F.Cu) (net 4))\u000a  (segment (start 154.859999 -91.045001) (end 156.825 -89.08) (width 0.35) (layer B.Cu) (net 4))\u000a  (segment (start 147.225 -95.15) (end 151.329999 -91.045001) (width 0.35) (layer B.Cu) (net 4))\u000a  (segment (start 145.88 -100.6) (end 145.88 -96.636998) (width 0.35) (layer B.Cu) (net 4))\u000a  (segment (start 151.329999 -91.045001) (end 154.859999 -91.045001) (width 0.35) (layer B.Cu) (net 4))\u000a  (segment (start 147.225 -95.291998) (end 147.225 -95.15) (width 0.35) (layer B.Cu) (net 4))\u000a  (segment (start 145.88 -96.636998) (end 147.225 -95.291998) (width 0.35) (layer B.Cu) (net 4))\u000a  (segment (start 148.22 -80.375) (end 148.595 -80) (width 0.35) (layer F.Cu) (net 4))\u000a  (segment (start 148.22 -83.94) (end 148.22 -80.375) (width 0.35) (layer F.Cu) (net 4))\u000a  (segment (start 139.58 -89.695) (end 139.3 -89.695) (width 0.35) (layer B.Cu) (net 4))\u000a  (segment (start 139.89999 -89.37501) (end 139.58 -89.695) (width 0.35) (layer B.Cu) (net 4))\u000a  (segment (start 139.3 -89.695) (end 137.75 -91.245) (width 0.35) (layer B.Cu) (net 4))\u000a  (segment (start 139.89999 -87.300177) (end 139.89999 -89.37501) (width 0.35) (layer B.Cu) (net 4))\u000a  (segment (start 144.061011 -82.188989) (end 143.101489 -83.148511) (width 0.35) (layer B.Cu) (net 4))\u000a  (segment (start 145.011179 -82.188989) (end 144.061011 -82.188989) (width 0.35) (layer B.Cu) (net 4))\u000a  (segment (start 147.369999 -81.225001) (end 145.975167 -81.225001) (width 0.35) (layer B.Cu) (net 4))\u000a  (segment (start 143.101489 -84.098679) (end 139.89999 -87.300177) (width 0.35) (layer B.Cu) (net 4))\u000a  (segment (start 145.975167 -81.225001) (end 145.011179 -82.188989) (width 0.35) (layer B.Cu) (net 4))\u000a  (segment (start 143.101489 -83.148511) (end 143.101489 -84.098679) (width 0.35) (layer B.Cu) (net 4))\u000a  (segment (start 148.595 -80) (end 147.369999 -81.225001) (width 0.35) (layer B.Cu) (net 4))\u000a  (segment (start 150.96 -100.6) (end 149.26 -98.9) (width 0.35) (layer F.Cu) (net 5))\u000a  (segment (start 149.26 -98.9) (end 147.975 -98.9) (width 0.35) (layer F.Cu) (net 5))\u000a  (segment (start 143.45 -94.375) (end 143.45 -92.36) (width 0.35) (layer F.Cu) (net 5))\u000a  (segment (start 147.975 -98.9) (end 143.45 -94.375) (width 0.35) (layer F.Cu) (net 5))\u000a  (segment (start 137.75 -86.165) (end 140.425 -88.84) (width 0.35) (layer F.Cu) (net 5))\u000a  (segment (start 140.425 -88.84) (end 140.425 -90.625) (width 0.35) (layer F.Cu) (net 5))\u000a  (segment (start 142.16 -92.36) (end 143.45 -92.36) (width 0.35) (layer F.Cu) (net 5))\u000a  (segment (start 140.425 -90.625) (end 142.16 -92.36) (width 0.35) (layer F.Cu) (net 5))\u000a  (segment (start 155.622919 -94.16) (end 156.825 -94.16) (width 0.35) (layer F.Cu) (net 5))\u000a  (segment (start 151.809999 -97.97292) (end 155.622919 -94.16) (width 0.35) (layer F.Cu) (net 5))\u000a  (segment (start 151.809999 -99.750001) (end 151.809999 -97.97292) (width 0.35) (layer F.Cu) (net 5))\u000a  (segment (start 150.96 -100.6) (end 151.809999 -99.750001) (width 0.35) (layer F.Cu) (net 5))\u000a  (segment (start 143.515 -80) (end 142.001469 -81.513531) (width 0.35) (layer B.Cu) (net 5))\u000a  (segment (start 142.001469 -81.513531) (end 142.001469 -83.273531) (width 0.35) (layer B.Cu) (net 5))\u000a  (segment (start 139.11 -86.165) (end 137.75 -86.165) (width 0.35) (layer B.Cu) (net 5))\u000a  (segment (start 142.001469 -83.273531) (end 139.11 -86.165) (width 0.35) (layer B.Cu) (net 5))\u000a  (segment (start 150.525 -95.625) (end 149.8 -94.9) (width 0.35) (layer F.Cu) (net 6))\u000a  (segment (start 150.525 -98) (end 150.525 -95.625) (width 0.35) (layer F.Cu) (net 6))\u000a  (segment (start 140.975 -80.4) (end 140.975 -80) (width 0.35) (layer F.Cu) (net 7))\u000a  (segment (start 137.75 -83.625) (end 140.975 -80.4) (width 0.35) (layer F.Cu) (net 7))\u000a  (segment (start 153.5 -100.6) (end 155.5 -100.6) (width 0.35) (layer F.Cu) (net 7))\u000a  (segment (start 156.825 -99.275) (end 156.825 -96.7) (width 0.35) (layer F.Cu) (net 7))\u000a  (segment (start 155.5 -100.6) (end 156.825 -99.275) (width 0.35) (layer F.Cu) (net 7))\u000a  (segment (start 153.5 -98.325) (end 153.825 -98) (width 0.35) (layer F.Cu) (net 7))\u000a  (segment (start 153.5 -100.6) (end 153.5 -98.325) (width 0.35) (layer F.Cu) (net 7))\u000a  (segment (start 155.525 -98) (end 156.825 -96.7) (width 0.35) (layer F.Cu) (net 7))\u000a  (segment (start 153.825 -98) (end 155.525 -98) (width 0.35) (layer F.Cu) (net 7))\u000a  (segment (start 154.825001 -78.774999) (end 142.200001 -78.774999) (width 0.35) (layer B.Cu) (net 7))\u000a  (segment (start 142.200001 -78.774999) (end 140.975 -80) (width 0.35) (layer B.Cu) (net 7))\u000a  (segment (start 158.050001 -95.474999) (end 158.050001 -81.999999) (width 0.35) (layer B.Cu) (net 7))\u000a  (segment (start 158.050001 -81.999999) (end 154.825001 -78.774999) (width 0.35) (layer B.Cu) (net 7))\u000a  (segment (start 156.825 -96.7) (end 158.050001 -95.474999) (width 0.35) (layer B.Cu) (net 7))\u000a\u000a)\u000a
p3
S'fbce7a7b3d0ef851c025dad3dabd97fd'
p4
(dp5
V614F1BC6
p6
(lp7
Vsheet614F1BC4
p8
aVone-key.sch
p9
asV614F1A10
p10
(lp11
Vsheet614F1A0E
p12
aVone-key.sch
p13
asV614F26AE
p14
(lp15
Vsheet614F26AC
p16
aVone-key.sch
p17
asV614F1C92
p18
(lp19
Vsheet614F1C90
p20
aVone-key.sch
p21
asV614F1A82
p22
(lp23
Vsheet614F1A80
p24
aVone-key.sch
p25
asV614F1B69
p26
(lp27
Vsheet614F1B67
p28
aVone-key.sch
p29
asV614F1CE6
p30
(lp31
Vsheet614F1CE4
p32
aVone-key.sch
p33
asV614F2672
p34
(lp35
Vsheet614F2670
p36
aVone-key.sch
p37
asV614F1AF6
p38
(lp39
Vsheet614F1AF4
p40
aVone-key.sch
p41
asV614F1C27
p42
(lp43
Vsheet614F1C25
p44
aVone-key.sch
p45
asV614F178C
p46
(lp47
V1KEY-MAIN
p48
aVone-key.sch
p49
asV614F1D62
p50
(lp51
Vsheet614F1D60
p52
aVone-key.sch
p53
as(lp54
VNet-(D1-Pad2)
p55
a(lp56
g48
a(lp57
g49
atp58
tp59
Rp60
.