ccopy_reg
_reconstructor
p0
(cKicad_action_plugins.save_restore_layout.save_restore_layout
LayoutData
p1
c__builtin__
tuple
p2
(V(kicad_pcb (version 20171130) (host pcbnew "(5.1.9-0-10_14)")\u000a\u000a  (general\u000a    (thickness 1.6)\u000a    (drawings 0)\u000a    (tracks 113)\u000a    (zones 0)\u000a    (modules 7)\u000a    (nets 8)\u000a  )\u000a\u000a  (page A4)\u000a  (layers\u000a    (0 F.Cu signal)\u000a    (31 B.Cu signal)\u000a    (32 B.Adhes user)\u000a    (33 F.Adhes user)\u000a    (34 B.Paste user)\u000a    (35 F.Paste user)\u000a    (36 B.SilkS user)\u000a    (37 F.SilkS user)\u000a    (38 B.Mask user)\u000a    (39 F.Mask user)\u000a    (40 Dwgs.User user)\u000a    (41 Cmts.User user)\u000a    (42 Eco1.User user)\u000a    (43 Eco2.User user)\u000a    (44 Edge.Cuts user)\u000a    (45 Margin user)\u000a    (46 B.CrtYd user)\u000a    (47 F.CrtYd user)\u000a    (48 B.Fab user hide)\u000a    (49 F.Fab user hide)\u000a  )\u000a\u000a  (setup\u000a    (last_trace_width 0.25)\u000a    (user_trace_width 0.35)\u000a    (user_trace_width 0.5)\u000a    (trace_clearance 0.2)\u000a    (zone_clearance 0.2)\u000a    (zone_45_only no)\u000a    (trace_min 0.2)\u000a    (via_size 0.8)\u000a    (via_drill 0.4)\u000a    (via_min_size 0.4)\u000a    (via_min_drill 0.3)\u000a    (uvia_size 0.3)\u000a    (uvia_drill 0.1)\u000a    (uvias_allowed no)\u000a    (uvia_min_size 0.2)\u000a    (uvia_min_drill 0.1)\u000a    (edge_width 0.05)\u000a    (segment_width 0.2)\u000a    (pcb_text_width 0.3)\u000a    (pcb_text_size 1.5 1.5)\u000a    (mod_edge_width 0.12)\u000a    (mod_text_size 1 1)\u000a    (mod_text_width 0.15)\u000a    (pad_size 4 4)\u000a    (pad_drill 4)\u000a    (pad_to_mask_clearance 0)\u000a    (aux_axis_origin 0 0)\u000a    (grid_origin -4.826 7.366)\u000a    (visible_elements FFFFFF7F)\u000a    (pcbplotparams\u000a      (layerselection 0x010fc_ffffffff)\u000a      (usegerberextensions false)\u000a      (usegerberattributes true)\u000a      (usegerberadvancedattributes true)\u000a      (creategerberjobfile true)\u000a      (excludeedgelayer true)\u000a      (linewidth 0.100000)\u000a      (plotframeref false)\u000a      (viasonmask false)\u000a      (mode 1)\u000a      (useauxorigin false)\u000a      (hpglpennumber 1)\u000a      (hpglpenspeed 20)\u000a      (hpglpendiameter 15.000000)\u000a      (psnegative false)\u000a      (psa4output false)\u000a      (plotreference true)\u000a      (plotvalue true)\u000a      (plotinvisibletext false)\u000a      (padsonsilk false)\u000a      (subtractmaskfromsilk false)\u000a      (outputformat 1)\u000a      (mirror false)\u000a      (drillshape 0)\u000a      (scaleselection 1)\u000a      (outputdirectory ""))\u000a  )\u000a\u000a  (net 0 "")\u000a  (net 1 VCC)\u000a  (net 2 DI)\u000a  (net 3 GND)\u000a  (net 4 DO)\u000a  (net 5 COL)\u000a  (net 6 "Net-(D1-Pad2)")\u000a  (net 7 ROW)\u000a\u000a  (net_class Default "This is the default net class."\u000a    (clearance 0.2)\u000a    (trace_width 0.25)\u000a    (via_dia 0.8)\u000a    (via_drill 0.4)\u000a    (uvia_dia 0.3)\u000a    (uvia_drill 0.1)\u000a    (add_net COL)\u000a    (add_net DI)\u000a    (add_net DO)\u000a    (add_net GND)\u000a    (add_net "Net-(D1-Pad2)")\u000a    (add_net "Net-(D10-Pad2)")\u000a    (add_net "Net-(D11-Pad2)")\u000a    (add_net "Net-(D12-Pad2)")\u000a    (add_net "Net-(D13-Pad2)")\u000a    (add_net "Net-(D14-Pad2)")\u000a    (add_net "Net-(D15-Pad2)")\u000a    (add_net "Net-(D16-Pad2)")\u000a    (add_net "Net-(D2-Pad2)")\u000a    (add_net "Net-(D3-Pad2)")\u000a    (add_net "Net-(D4-Pad2)")\u000a    (add_net "Net-(D5-Pad2)")\u000a    (add_net "Net-(D6-Pad2)")\u000a    (add_net "Net-(D7-Pad2)")\u000a    (add_net "Net-(D8-Pad2)")\u000a    (add_net "Net-(D9-Pad2)")\u000a    (add_net ROW)\u000a    (add_net VCC)\u000a  )\u000a\u000a  (module WingCustomParts:ws2812b-2020-2.0mmx2.0mm (layer F.Cu) (tedit 61480F0C) (tstamp 616273E0)\u000a    (at -2.54 10.795)\u000a    (path /614F178C/614F2C22)\u000a    (fp_text reference WS1 (at -3.048 -0.127) (layer F.SilkS)\u000a      (effects (font (size 1 1) (thickness 0.15)))\u000a    )\u000a    (fp_text value WS2812B-2020-JLCPCB (at 0 -5.5) (layer F.Fab)\u000a      (effects (font (size 1 1) (thickness 0.15)))\u000a    )\u000a    (fp_line (start -1.265 -0.2) (end 1.265 -0.2) (layer Dwgs.User) (width 0.02))\u000a    (fp_line (start 0.55 -1) (end 0.55 1) (layer Dwgs.User) (width 0.02))\u000a    (fp_line (start 1.265 0.2) (end -1.265 0.2) (layer Dwgs.User) (width 0.02))\u000a    (fp_line (start -1.265 -0.2) (end -1.265 0.2) (layer Dwgs.User) (width 0.02))\u000a    (fp_line (start 1.265 -0.2) (end 1.265 0.2) (layer Dwgs.User) (width 0.02))\u000a    (fp_line (start 0.55 -1) (end -0.55 -1) (layer Dwgs.User) (width 0.02))\u000a    (fp_line (start -0.55 -1) (end -0.55 1) (layer Dwgs.User) (width 0.02))\u000a    (fp_line (start -0.55 1) (end 0.55 1) (layer Dwgs.User) (width 0.02))\u000a    (fp_poly (pts (xy 0.55 1) (xy 0.35 1) (xy 0.35 -1) (xy 0.55 -1)) (layer Dwgs.User) (width 0.02))\u000a    (fp_line (start 1.3 -1.1) (end -1.4 -1.1) (layer F.CrtYd) (width 0.02))\u000a    (fp_line (start -1.4 -1.1) (end -1.4 1.1) (layer F.CrtYd) (width 0.02))\u000a    (fp_line (start -1.4 1.1) (end 1.4 1.1) (layer F.CrtYd) (width 0.02))\u000a    (fp_line (start 1.4 1.1) (end 1.4 -1.1) (layer F.CrtYd) (width 0.02))\u000a    (fp_line (start 1.4 -1.1) (end 1.3 -1.1) (layer F.CrtYd) (width 0.02))\u000a    (pad 4 smd rect (at -0.92 0.56 180) (size 0.7 0.7) (layers F.Cu F.Paste F.Mask)\u000a      (net 1 VCC))\u000a    (pad 3 smd rect (at -0.92 -0.56 180) (size 0.7 0.7) (layers F.Cu F.Paste F.Mask)\u000a      (net 2 DI))\u000a    (pad 2 smd rect (at 0.92 -0.56 180) (size 0.7 0.7) (layers F.Cu F.Paste F.Mask)\u000a      (net 3 GND))\u000a    (pad 1 smd rect (at 0.92 0.56 180) (size 0.7 0.7) (layers F.Cu F.Paste F.Mask)\u000a      (net 4 DO))\u000a    (model /Users/wingtangwong/Documents/KICAD/LIBRARY/3D-MODELS/ws2812c-2020-led-1.snapshot.7/LED_WS2812_2020.step\u000a      (at (xyz 0 0 0))\u000a      (scale (xyz 1 1 1))\u000a      (rotate (xyz 0 0 0))\u000a    )\u000a  )\u000a\u000a  (module cherry:SW_Cherry_MX_1.00u_PCB (layer F.Cu) (tedit 5A02FE24) (tstamp 616270F4)\u000a    (at 0 0)\u000a    (descr "Cherry MX keyswitch, 1.00u, PCB mount, http://cherryamericas.com/wp-content/uploads/2014/12/mx_cat.pdf")\u000a    (tags "Cherry MX keyswitch 1.00u PCB")\u000a    (path /614F178C/614F0979)\u000a    (fp_text reference SW1 (at -3.556 1.016) (layer F.SilkS)\u000a      (effects (font (size 1 1) (thickness 0.15)))\u000a    )\u000a    (fp_text value SW_Push (at -2.54 12.954) (layer F.Fab)\u000a      (effects (font (size 1 1) (thickness 0.15)))\u000a    )\u000a    (fp_line (start -9.525 12.065) (end -9.525 -1.905) (layer F.SilkS) (width 0.12))\u000a    (fp_line (start 4.445 12.065) (end -9.525 12.065) (layer F.SilkS) (width 0.12))\u000a    (fp_line (start 4.445 -1.905) (end 4.445 12.065) (layer F.SilkS) (width 0.12))\u000a    (fp_line (start -9.525 -1.905) (end 4.445 -1.905) (layer F.SilkS) (width 0.12))\u000a    (fp_line (start -12.065 14.605) (end -12.065 -4.445) (layer Dwgs.User) (width 0.15))\u000a    (fp_line (start 6.985 14.605) (end -12.065 14.605) (layer Dwgs.User) (width 0.15))\u000a    (fp_line (start 6.985 -4.445) (end 6.985 14.605) (layer Dwgs.User) (width 0.15))\u000a    (fp_line (start -12.065 -4.445) (end 6.985 -4.445) (layer Dwgs.User) (width 0.15))\u000a    (fp_line (start -9.14 -1.52) (end 4.06 -1.52) (layer F.CrtYd) (width 0.05))\u000a    (fp_line (start 4.06 -1.52) (end 4.06 11.68) (layer F.CrtYd) (width 0.05))\u000a    (fp_line (start 4.06 11.68) (end -9.14 11.68) (layer F.CrtYd) (width 0.05))\u000a    (fp_line (start -9.14 11.68) (end -9.14 -1.52) (layer F.CrtYd) (width 0.05))\u000a    (fp_line (start -8.89 11.43) (end -8.89 -1.27) (layer F.Fab) (width 0.1))\u000a    (fp_line (start 3.81 11.43) (end -8.89 11.43) (layer F.Fab) (width 0.1))\u000a    (fp_line (start 3.81 -1.27) (end 3.81 11.43) (layer F.Fab) (width 0.1))\u000a    (fp_line (start -8.89 -1.27) (end 3.81 -1.27) (layer F.Fab) (width 0.1))\u000a    (fp_text user %R (at -2.54 -2.794) (layer F.Fab)\u000a      (effects (font (size 1 1) (thickness 0.15)))\u000a    )\u000a    (pad "" np_thru_hole circle (at 2.54 5.08) (size 1.7 1.7) (drill 1.7) (layers *.Cu *.Mask))\u000a    (pad "" np_thru_hole circle (at -7.62 5.08) (size 1.7 1.7) (drill 1.7) (layers *.Cu *.Mask))\u000a    (pad "" np_thru_hole circle (at -2.54 5.08) (size 4 4) (drill 4) (layers *.Cu *.Mask))\u000a    (pad 2 thru_hole circle (at -6.35 2.54) (size 2.2 2.2) (drill 1.5) (layers *.Cu *.Mask)\u000a      (net 5 COL))\u000a    (pad 1 thru_hole circle (at 0 0) (size 2.2 2.2) (drill 1.5) (layers *.Cu *.Mask)\u000a      (net 6 "Net-(D1-Pad2)"))\u000a    (model /Users/wingtangwong/Documents/KICAD/LIBRARY/3D-MODELS/cherry-mx-1.snapshot.3/asm_mx_asm_PCB.stp\u000a      (offset (xyz -2.25 -4.75 5))\u000a      (scale (xyz 1 1 1))\u000a      (rotate (xyz 180 0 90))\u000a    )\u000a  )\u000a\u000a  (module Connector_PinHeader_2.54mm:PinHeader_1x06_P2.54mm_Vertical (layer F.Cu) (tedit 59FED5CC) (tstamp 61626522)\u000a    (at -8.89 17.145 90)\u000a    (descr "Through hole straight pin header, 1x06, 2.54mm pitch, single row")\u000a    (tags "Through hole pin header THT 1x06 2.54mm single row")\u000a    (path /614F178C/6160C4E2)\u000a    (fp_text reference BOTTOM1 (at 2.921 6.35 180) (layer F.SilkS)\u000a      (effects (font (size 1 1) (thickness 0.15)))\u000a    )\u000a    (fp_text value Conn_01x06 (at 0 15.03 90) (layer F.Fab)\u000a      (effects (font (size 1 1) (thickness 0.15)))\u000a    )\u000a    (fp_line (start 1.8 -1.8) (end -1.8 -1.8) (layer F.CrtYd) (width 0.05))\u000a    (fp_line (start 1.8 14.5) (end 1.8 -1.8) (layer F.CrtYd) (width 0.05))\u000a    (fp_line (start -1.8 14.5) (end 1.8 14.5) (layer F.CrtYd) (width 0.05))\u000a    (fp_line (start -1.8 -1.8) (end -1.8 14.5) (layer F.CrtYd) (width 0.05))\u000a    (fp_line (start -1.33 -1.33) (end 0 -1.33) (layer F.SilkS) (width 0.12))\u000a    (fp_line (start -1.33 0) (end -1.33 -1.33) (layer F.SilkS) (width 0.12))\u000a    (fp_line (start -1.33 1.27) (end 1.33 1.27) (layer F.SilkS) (width 0.12))\u000a    (fp_line (start 1.33 1.27) (end 1.33 14.03) (layer F.SilkS) (width 0.12))\u000a    (fp_line (start -1.33 1.27) (end -1.33 14.03) (layer F.SilkS) (width 0.12))\u000a    (fp_line (start -1.33 14.03) (end 1.33 14.03) (layer F.SilkS) (width 0.12))\u000a    (fp_line (start -1.27 -0.635) (end -0.635 -1.27) (layer F.Fab) (width 0.1))\u000a    (fp_line (start -1.27 13.97) (end -1.27 -0.635) (layer F.Fab) (width 0.1))\u000a    (fp_line (start 1.27 13.97) (end -1.27 13.97) (layer F.Fab) (width 0.1))\u000a    (fp_line (start 1.27 -1.27) (end 1.27 13.97) (layer F.Fab) (width 0.1))\u000a    (fp_line (start -0.635 -1.27) (end 1.27 -1.27) (layer F.Fab) (width 0.1))\u000a    (fp_text user %R (at 0 6.35) (layer F.Fab)\u000a      (effects (font (size 1 1) (thickness 0.15)))\u000a    )\u000a    (pad 6 thru_hole oval (at 0 12.7 90) (size 1.7 1.7) (drill 1) (layers *.Cu *.Mask)\u000a      (net 1 VCC))\u000a    (pad 5 thru_hole oval (at 0 10.16 90) (size 1.7 1.7) (drill 1) (layers *.Cu *.Mask)\u000a      (net 3 GND))\u000a    (pad 4 thru_hole oval (at 0 7.62 90) (size 1.7 1.7) (drill 1) (layers *.Cu *.Mask)\u000a      (net 2 DI))\u000a    (pad 3 thru_hole oval (at 0 5.08 90) (size 1.7 1.7) (drill 1) (layers *.Cu *.Mask)\u000a      (net 4 DO))\u000a    (pad 2 thru_hole oval (at 0 2.54 90) (size 1.7 1.7) (drill 1) (layers *.Cu *.Mask)\u000a      (net 5 COL))\u000a    (pad 1 thru_hole rect (at 0 0 90) (size 1.7 1.7) (drill 1) (layers *.Cu *.Mask)\u000a      (net 7 ROW))\u000a    (model ${KISYS3DMOD}/Connector_PinHeader_2.54mm.3dshapes/PinHeader_1x06_P2.54mm_Vertical.wrl\u000a      (at (xyz 0 0 0))\u000a      (scale (xyz 1 1 1))\u000a      (rotate (xyz 0 0 0))\u000a    )\u000a  )\u000a\u000a  (module Connector_PinHeader_2.54mm:PinHeader_1x06_P2.54mm_Vertical (layer F.Cu) (tedit 59FED5CC) (tstamp 61626508)\u000a    (at 9.525 11.43 180)\u000a    (descr "Through hole straight pin header, 1x06, 2.54mm pitch, single row")\u000a    (tags "Through hole pin header THT 1x06 2.54mm single row")\u000a    (path /614F178C/616079CD)\u000a    (fp_text reference RIGHT1 (at 2.413 6.35 90) (layer F.SilkS)\u000a      (effects (font (size 1 1) (thickness 0.15)))\u000a    )\u000a    (fp_text value Conn_01x06 (at 0 15.03) (layer F.Fab)\u000a      (effects (font (size 1 1) (thickness 0.15)))\u000a    )\u000a    (fp_line (start 1.8 -1.8) (end -1.8 -1.8) (layer F.CrtYd) (width 0.05))\u000a    (fp_line (start 1.8 14.5) (end 1.8 -1.8) (layer F.CrtYd) (width 0.05))\u000a    (fp_line (start -1.8 14.5) (end 1.8 14.5) (layer F.CrtYd) (width 0.05))\u000a    (fp_line (start -1.8 -1.8) (end -1.8 14.5) (layer F.CrtYd) (width 0.05))\u000a    (fp_line (start -1.33 -1.33) (end 0 -1.33) (layer F.SilkS) (width 0.12))\u000a    (fp_line (start -1.33 0) (end -1.33 -1.33) (layer F.SilkS) (width 0.12))\u000a    (fp_line (start -1.33 1.27) (end 1.33 1.27) (layer F.SilkS) (width 0.12))\u000a    (fp_line (start 1.33 1.27) (end 1.33 14.03) (layer F.SilkS) (width 0.12))\u000a    (fp_line (start -1.33 1.27) (end -1.33 14.03) (layer F.SilkS) (width 0.12))\u000a    (fp_line (start -1.33 14.03) (end 1.33 14.03) (layer F.SilkS) (width 0.12))\u000a    (fp_line (start -1.27 -0.635) (end -0.635 -1.27) (layer F.Fab) (width 0.1))\u000a    (fp_line (start -1.27 13.97) (end -1.27 -0.635) (layer F.Fab) (width 0.1))\u000a    (fp_line (start 1.27 13.97) (end -1.27 13.97) (layer F.Fab) (width 0.1))\u000a    (fp_line (start 1.27 -1.27) (end 1.27 13.97) (layer F.Fab) (width 0.1))\u000a    (fp_line (start -0.635 -1.27) (end 1.27 -1.27) (layer F.Fab) (width 0.1))\u000a    (fp_text user %R (at 0 6.35 90) (layer F.Fab)\u000a      (effects (font (size 1 1) (thickness 0.15)))\u000a    )\u000a    (pad 6 thru_hole oval (at 0 12.7 180) (size 1.7 1.7) (drill 1) (layers *.Cu *.Mask)\u000a      (net 1 VCC))\u000a    (pad 5 thru_hole oval (at 0 10.16 180) (size 1.7 1.7) (drill 1) (layers *.Cu *.Mask)\u000a      (net 3 GND))\u000a    (pad 4 thru_hole oval (at 0 7.62 180) (size 1.7 1.7) (drill 1) (layers *.Cu *.Mask)\u000a      (net 2 DI))\u000a    (pad 3 thru_hole oval (at 0 5.08 180) (size 1.7 1.7) (drill 1) (layers *.Cu *.Mask)\u000a      (net 4 DO))\u000a    (pad 2 thru_hole oval (at 0 2.54 180) (size 1.7 1.7) (drill 1) (layers *.Cu *.Mask)\u000a      (net 5 COL))\u000a    (pad 1 thru_hole rect (at 0 0 180) (size 1.7 1.7) (drill 1) (layers *.Cu *.Mask)\u000a      (net 7 ROW))\u000a    (model ${KISYS3DMOD}/Connector_PinHeader_2.54mm.3dshapes/PinHeader_1x06_P2.54mm_Vertical.wrl\u000a      (at (xyz 0 0 0))\u000a      (scale (xyz 1 1 1))\u000a      (rotate (xyz 0 0 0))\u000a    )\u000a  )\u000a\u000a  (module Connector_PinHeader_2.54mm:PinHeader_1x06_P2.54mm_Vertical (layer F.Cu) (tedit 59FED5CC) (tstamp 616264EE)\u000a    (at 3.81 -6.985 270)\u000a    (descr "Through hole straight pin header, 1x06, 2.54mm pitch, single row")\u000a    (tags "Through hole pin header THT 1x06 2.54mm single row")\u000a    (path /614F178C/6160BF15)\u000a    (fp_text reference TOP1 (at 2.413 6.35 180) (layer F.SilkS)\u000a      (effects (font (size 1 1) (thickness 0.15)))\u000a    )\u000a    (fp_text value Conn_01x06 (at 0 15.03 90) (layer F.Fab)\u000a      (effects (font (size 1 1) (thickness 0.15)))\u000a    )\u000a    (fp_line (start 1.8 -1.8) (end -1.8 -1.8) (layer F.CrtYd) (width 0.05))\u000a    (fp_line (start 1.8 14.5) (end 1.8 -1.8) (layer F.CrtYd) (width 0.05))\u000a    (fp_line (start -1.8 14.5) (end 1.8 14.5) (layer F.CrtYd) (width 0.05))\u000a    (fp_line (start -1.8 -1.8) (end -1.8 14.5) (layer F.CrtYd) (width 0.05))\u000a    (fp_line (start -1.33 -1.33) (end 0 -1.33) (layer F.SilkS) (width 0.12))\u000a    (fp_line (start -1.33 0) (end -1.33 -1.33) (layer F.SilkS) (width 0.12))\u000a    (fp_line (start -1.33 1.27) (end 1.33 1.27) (layer F.SilkS) (width 0.12))\u000a    (fp_line (start 1.33 1.27) (end 1.33 14.03) (layer F.SilkS) (width 0.12))\u000a    (fp_line (start -1.33 1.27) (end -1.33 14.03) (layer F.SilkS) (width 0.12))\u000a    (fp_line (start -1.33 14.03) (end 1.33 14.03) (layer F.SilkS) (width 0.12))\u000a    (fp_line (start -1.27 -0.635) (end -0.635 -1.27) (layer F.Fab) (width 0.1))\u000a    (fp_line (start -1.27 13.97) (end -1.27 -0.635) (layer F.Fab) (width 0.1))\u000a    (fp_line (start 1.27 13.97) (end -1.27 13.97) (layer F.Fab) (width 0.1))\u000a    (fp_line (start 1.27 -1.27) (end 1.27 13.97) (layer F.Fab) (width 0.1))\u000a    (fp_line (start -0.635 -1.27) (end 1.27 -1.27) (layer F.Fab) (width 0.1))\u000a    (fp_text user %R (at 0 6.35) (layer F.Fab)\u000a      (effects (font (size 1 1) (thickness 0.15)))\u000a    )\u000a    (pad 6 thru_hole oval (at 0 12.7 270) (size 1.7 1.7) (drill 1) (layers *.Cu *.Mask)\u000a      (net 7 ROW))\u000a    (pad 5 thru_hole oval (at 0 10.16 270) (size 1.7 1.7) (drill 1) (layers *.Cu *.Mask)\u000a      (net 5 COL))\u000a    (pad 4 thru_hole oval (at 0 7.62 270) (size 1.7 1.7) (drill 1) (layers *.Cu *.Mask)\u000a      (net 2 DI))\u000a    (pad 3 thru_hole oval (at 0 5.08 270) (size 1.7 1.7) (drill 1) (layers *.Cu *.Mask)\u000a      (net 4 DO))\u000a    (pad 2 thru_hole oval (at 0 2.54 270) (size 1.7 1.7) (drill 1) (layers *.Cu *.Mask)\u000a      (net 3 GND))\u000a    (pad 1 thru_hole rect (at 0 0 270) (size 1.7 1.7) (drill 1) (layers *.Cu *.Mask)\u000a      (net 1 VCC))\u000a    (model ${KISYS3DMOD}/Connector_PinHeader_2.54mm.3dshapes/PinHeader_1x06_P2.54mm_Vertical.wrl\u000a      (at (xyz 0 0 0))\u000a      (scale (xyz 1 1 1))\u000a      (rotate (xyz 0 0 0))\u000a    )\u000a  )\u000a\u000a  (module Connector_PinHeader_2.54mm:PinHeader_1x06_P2.54mm_Vertical (layer F.Cu) (tedit 59FED5CC) (tstamp 61627769)\u000a    (at -14.605 -1.27)\u000a    (descr "Through hole straight pin header, 1x06, 2.54mm pitch, single row")\u000a    (tags "Through hole pin header THT 1x06 2.54mm single row")\u000a    (path /614F178C/6160B2CF)\u000a    (fp_text reference LEFT1 (at 2.921 6.35 90) (layer F.SilkS)\u000a      (effects (font (size 1 1) (thickness 0.15)))\u000a    )\u000a    (fp_text value Conn_01x06 (at 0 15.03) (layer F.Fab)\u000a      (effects (font (size 1 1) (thickness 0.15)))\u000a    )\u000a    (fp_line (start 1.8 -1.8) (end -1.8 -1.8) (layer F.CrtYd) (width 0.05))\u000a    (fp_line (start 1.8 14.5) (end 1.8 -1.8) (layer F.CrtYd) (width 0.05))\u000a    (fp_line (start -1.8 14.5) (end 1.8 14.5) (layer F.CrtYd) (width 0.05))\u000a    (fp_line (start -1.8 -1.8) (end -1.8 14.5) (layer F.CrtYd) (width 0.05))\u000a    (fp_line (start -1.33 -1.33) (end 0 -1.33) (layer F.SilkS) (width 0.12))\u000a    (fp_line (start -1.33 0) (end -1.33 -1.33) (layer F.SilkS) (width 0.12))\u000a    (fp_line (start -1.33 1.27) (end 1.33 1.27) (layer F.SilkS) (width 0.12))\u000a    (fp_line (start 1.33 1.27) (end 1.33 14.03) (layer F.SilkS) (width 0.12))\u000a    (fp_line (start -1.33 1.27) (end -1.33 14.03) (layer F.SilkS) (width 0.12))\u000a    (fp_line (start -1.33 14.03) (end 1.33 14.03) (layer F.SilkS) (width 0.12))\u000a    (fp_line (start -1.27 -0.635) (end -0.635 -1.27) (layer F.Fab) (width 0.1))\u000a    (fp_line (start -1.27 13.97) (end -1.27 -0.635) (layer F.Fab) (width 0.1))\u000a    (fp_line (start 1.27 13.97) (end -1.27 13.97) (layer F.Fab) (width 0.1))\u000a    (fp_line (start 1.27 -1.27) (end 1.27 13.97) (layer F.Fab) (width 0.1))\u000a    (fp_line (start -0.635 -1.27) (end 1.27 -1.27) (layer F.Fab) (width 0.1))\u000a    (fp_text user %R (at 0 6.35 90) (layer F.Fab)\u000a      (effects (font (size 1 1) (thickness 0.15)))\u000a    )\u000a    (pad 6 thru_hole oval (at 0 12.7) (size 1.7 1.7) (drill 1) (layers *.Cu *.Mask)\u000a      (net 7 ROW))\u000a    (pad 5 thru_hole oval (at 0 10.16) (size 1.7 1.7) (drill 1) (layers *.Cu *.Mask)\u000a      (net 5 COL))\u000a    (pad 4 thru_hole oval (at 0 7.62) (size 1.7 1.7) (drill 1) (layers *.Cu *.Mask)\u000a      (net 2 DI))\u000a    (pad 3 thru_hole oval (at 0 5.08) (size 1.7 1.7) (drill 1) (layers *.Cu *.Mask)\u000a      (net 4 DO))\u000a    (pad 2 thru_hole oval (at 0 2.54) (size 1.7 1.7) (drill 1) (layers *.Cu *.Mask)\u000a      (net 3 GND))\u000a    (pad 1 thru_hole rect (at 0 0) (size 1.7 1.7) (drill 1) (layers *.Cu *.Mask)\u000a      (net 1 VCC))\u000a    (model ${KISYS3DMOD}/Connector_PinHeader_2.54mm.3dshapes/PinHeader_1x06_P2.54mm_Vertical.wrl\u000a      (at (xyz 0 0 0))\u000a      (scale (xyz 1 1 1))\u000a      (rotate (xyz 0 0 0))\u000a    )\u000a  )\u000a\u000a  (module Diode_SMD:D_SOD-123 (layer F.Cu) (tedit 58645DC7) (tstamp 616278CA)\u000a    (at 1.905 -3.556 180)\u000a    (descr SOD-123)\u000a    (tags SOD-123)\u000a    (path /614F178C/615FEEAC)\u000a    (attr smd)\u000a    (fp_text reference D1 (at -3.683 -0.127) (layer F.SilkS)\u000a      (effects (font (size 1 1) (thickness 0.15)))\u000a    )\u000a    (fp_text value 1N4148W (at 0 2.1) (layer F.Fab)\u000a      (effects (font (size 1 1) (thickness 0.15)))\u000a    )\u000a    (fp_line (start -2.25 -1) (end 1.65 -1) (layer F.SilkS) (width 0.12))\u000a    (fp_line (start -2.25 1) (end 1.65 1) (layer F.SilkS) (width 0.12))\u000a    (fp_line (start -2.35 -1.15) (end -2.35 1.15) (layer F.CrtYd) (width 0.05))\u000a    (fp_line (start 2.35 1.15) (end -2.35 1.15) (layer F.CrtYd) (width 0.05))\u000a    (fp_line (start 2.35 -1.15) (end 2.35 1.15) (layer F.CrtYd) (width 0.05))\u000a    (fp_line (start -2.35 -1.15) (end 2.35 -1.15) (layer F.CrtYd) (width 0.05))\u000a    (fp_line (start -1.4 -0.9) (end 1.4 -0.9) (layer F.Fab) (width 0.1))\u000a    (fp_line (start 1.4 -0.9) (end 1.4 0.9) (layer F.Fab) (width 0.1))\u000a    (fp_line (start 1.4 0.9) (end -1.4 0.9) (layer F.Fab) (width 0.1))\u000a    (fp_line (start -1.4 0.9) (end -1.4 -0.9) (layer F.Fab) (width 0.1))\u000a    (fp_line (start -0.75 0) (end -0.35 0) (layer F.Fab) (width 0.1))\u000a    (fp_line (start -0.35 0) (end -0.35 -0.55) (layer F.Fab) (width 0.1))\u000a    (fp_line (start -0.35 0) (end -0.35 0.55) (layer F.Fab) (width 0.1))\u000a    (fp_line (start -0.35 0) (end 0.25 -0.4) (layer F.Fab) (width 0.1))\u000a    (fp_line (start 0.25 -0.4) (end 0.25 0.4) (layer F.Fab) (width 0.1))\u000a    (fp_line (start 0.25 0.4) (end -0.35 0) (layer F.Fab) (width 0.1))\u000a    (fp_line (start 0.25 0) (end 0.75 0) (layer F.Fab) (width 0.1))\u000a    (fp_line (start -2.25 -1) (end -2.25 1) (layer F.SilkS) (width 0.12))\u000a    (fp_text user %R (at 0 -2) (layer F.Fab)\u000a      (effects (font (size 1 1) (thickness 0.15)))\u000a    )\u000a    (pad 2 smd rect (at 1.65 0 180) (size 0.9 1.2) (layers F.Cu F.Paste F.Mask)\u000a      (net 6 "Net-(D1-Pad2)"))\u000a    (pad 1 smd rect (at -1.65 0 180) (size 0.9 1.2) (layers F.Cu F.Paste F.Mask)\u000a      (net 7 ROW))\u000a    (model ${KISYS3DMOD}/Diode_SMD.3dshapes/D_SOD-123.wrl\u000a      (at (xyz 0 0 0))\u000a      (scale (xyz 1 1 1))\u000a      (rotate (xyz 0 0 0))\u000a    )\u000a  )\u000a\u000a  (segment (start 4.330001 16.624999) (end 3.81 17.145) (width 0.25) (layer F.Cu) (net 1))\u000a  (segment (start 4.330001 -6.464999) (end 4.330001 -1.409001) (width 0.25) (layer F.Cu) (net 1))\u000a  (segment (start 3.81 -6.985) (end 4.330001 -6.464999) (width 0.25) (layer F.Cu) (net 1))\u000a  (segment (start 9.369999 -1.425001) (end 9.525 -1.27) (width 0.25) (layer B.Cu) (net 1))\u000a  (segment (start -14.449999 -1.425001) (end 4.473001 -1.425001) (width 0.25) (layer B.Cu) (net 1))\u000a  (segment (start -14.605 -1.27) (end -14.449999 -1.425001) (width 0.25) (layer B.Cu) (net 1))\u000a  (segment (start 4.473001 -1.425001) (end 9.369999 -1.425001) (width 0.25) (layer B.Cu) (net 1) (tstamp 6162F606))\u000a  (segment (start 4.330001 -1.409001) (end 4.330001 16.624999) (width 0.25) (layer F.Cu) (net 1) (tstamp 6162F71C))\u000a  (via (at 4.330001 -1.409001) (size 0.8) (drill 0.4) (layers F.Cu B.Cu) (net 1))\u000a  (via (at -3.81 12.827) (size 0.8) (drill 0.4) (layers F.Cu B.Cu) (net 1))\u000a  (segment (start -0.508 12.827) (end -3.81 12.827) (width 0.25) (layer B.Cu) (net 1))\u000a  (segment (start 3.81 17.145) (end -0.508 12.827) (width 0.25) (layer B.Cu) (net 1))\u000a  (segment (start -3.81 11.705) (end -3.46 11.355) (width 0.25) (layer F.Cu) (net 1))\u000a  (segment (start -3.81 12.827) (end -3.81 11.705) (width 0.25) (layer F.Cu) (net 1))\u000a  (segment (start -4.985001 11.160001) (end -4.06 10.235) (width 0.25) (layer F.Cu) (net 2))\u000a  (segment (start -4.06 10.235) (end -3.46 10.235) (width 0.25) (layer F.Cu) (net 2))\u000a  (segment (start -4.604001 13.810999) (end -4.985001 13.810999) (width 0.25) (layer B.Cu) (net 2))\u000a  (via (at -4.985001 13.810999) (size 0.8) (drill 0.4) (layers F.Cu B.Cu) (net 2))\u000a  (segment (start -1.27 17.145) (end -4.604001 13.810999) (width 0.25) (layer B.Cu) (net 2))\u000a  (segment (start -4.985001 13.810999) (end -4.985001 11.160001) (width 0.25) (layer F.Cu) (net 2))\u000a  (segment (start -3.81 -3.81) (end -3.81 -6.985) (width 0.25) (layer F.Cu) (net 2))\u000a  (segment (start -4.865001 -2.754999) (end -3.81 -3.81) (width 0.25) (layer F.Cu) (net 2))\u000a  (segment (start -4.865001 3.468001) (end -4.865001 -2.754999) (width 0.25) (layer F.Cu) (net 2))\u000a  (segment (start -5.715 4.318) (end -4.865001 3.468001) (width 0.25) (layer F.Cu) (net 2))\u000a  (segment (start -5.715 6.553001) (end -5.715 4.318) (width 0.25) (layer F.Cu) (net 2))\u000a  (segment (start -3.46 10.235) (end -4.865001 8.829999) (width 0.25) (layer F.Cu) (net 2))\u000a  (via (at 5.588 7.493) (size 0.8) (drill 0.4) (layers F.Cu B.Cu) (net 2))\u000a  (segment (start 5.842 7.493) (end 5.588 7.493) (width 0.25) (layer F.Cu) (net 2))\u000a  (segment (start 9.525 3.81) (end 5.842 7.493) (width 0.25) (layer F.Cu) (net 2))\u000a  (via (at -4.865001 7.786001) (size 0.8) (drill 0.4) (layers F.Cu B.Cu) (net 2))\u000a  (segment (start -4.572 7.493) (end -4.865001 7.786001) (width 0.25) (layer B.Cu) (net 2))\u000a  (segment (start 5.588 7.493) (end -4.572 7.493) (width 0.25) (layer B.Cu) (net 2))\u000a  (segment (start -4.865001 7.786001) (end -4.865001 7.403) (width 0.25) (layer F.Cu) (net 2))\u000a  (segment (start -4.865001 8.829999) (end -4.865001 7.786001) (width 0.25) (layer F.Cu) (net 2))\u000a  (via (at -6.477 6.35) (size 0.8) (drill 0.4) (layers F.Cu B.Cu) (net 2))\u000a  (segment (start -5.931 6.896) (end -6.477 6.35) (width 0.25) (layer F.Cu) (net 2))\u000a  (segment (start -5.372 6.896) (end -5.931 6.896) (width 0.25) (layer F.Cu) (net 2))\u000a  (segment (start -14.605 6.35) (end -6.477 6.35) (width 0.25) (layer B.Cu) (net 2))\u000a  (segment (start -4.865001 7.403) (end -5.372 6.896) (width 0.25) (layer F.Cu) (net 2))\u000a  (segment (start -5.372 6.896) (end -5.715 6.553001) (width 0.25) (layer F.Cu) (net 2))\u000a  (segment (start -14.449999 1.114999) (end -14.605 1.27) (width 0.25) (layer B.Cu) (net 3))\u000a  (segment (start -5.665999 1.114999) (end -14.449999 1.114999) (width 0.25) (layer B.Cu) (net 3))\u000a  (segment (start -4.660999 2.119999) (end -5.665999 1.114999) (width 0.25) (layer B.Cu) (net 3))\u000a  (segment (start 9.525 1.27) (end 8.675001 2.119999) (width 0.25) (layer B.Cu) (net 3))\u000a  (segment (start 1.27 4.610998) (end 1.27 17.145) (width 0.25) (layer F.Cu) (net 3))\u000a  (segment (start 1.524 -4.572) (end 1.524 2.159) (width 0.25) (layer F.Cu) (net 3))\u000a  (segment (start 1.27 -4.826) (end 1.524 -4.572) (width 0.25) (layer F.Cu) (net 3))\u000a  (segment (start 1.524 4.356998) (end 1.27 4.610998) (width 0.25) (layer F.Cu) (net 3))\u000a  (segment (start 1.27 -6.985) (end 1.27 -4.826) (width 0.25) (layer F.Cu) (net 3))\u000a  (segment (start 1.524 2.159) (end 1.524 4.356998) (width 0.25) (layer F.Cu) (net 3) (tstamp 6162F71E))\u000a  (via (at 1.524 2.159) (size 0.8) (drill 0.4) (layers F.Cu B.Cu) (net 3))\u000a  (segment (start -5.26499 4.5044) (end -4.024999 3.264409) (width 0.25) (layer F.Cu) (net 3))\u000a  (segment (start -5.26499 5.930009) (end -5.26499 4.5044) (width 0.25) (layer F.Cu) (net 3))\u000a  (segment (start -1.62 9.574999) (end -5.26499 5.930009) (width 0.25) (layer F.Cu) (net 3))\u000a  (segment (start -1.62 10.235) (end -1.62 9.574999) (width 0.25) (layer F.Cu) (net 3))\u000a  (via (at -4.024999 2.119999) (size 0.8) (drill 0.4) (layers F.Cu B.Cu) (net 3))\u000a  (segment (start -4.024999 2.119999) (end -4.660999 2.119999) (width 0.25) (layer B.Cu) (net 3))\u000a  (segment (start -4.024999 3.264409) (end -4.024999 2.119999) (width 0.25) (layer F.Cu) (net 3))\u000a  (segment (start 8.675001 2.119999) (end -4.024999 2.119999) (width 0.25) (layer B.Cu) (net 3))\u000a  (segment (start -1.02 11.355) (end -1.62 11.355) (width 0.25) (layer F.Cu) (net 4))\u000a  (segment (start -0.214999 10.549999) (end -1.02 11.355) (width 0.25) (layer F.Cu) (net 4))\u000a  (segment (start -2.119999 -6.135001) (end -2.119999 2.058999) (width 0.25) (layer F.Cu) (net 4))\u000a  (segment (start -1.27 -6.985) (end -2.119999 -6.135001) (width 0.25) (layer F.Cu) (net 4))\u000a  (segment (start -3.81 17.145) (end -3.81 14.478) (width 0.25) (layer F.Cu) (net 4))\u000a  (segment (start -1.62 12.288) (end -1.62 11.355) (width 0.25) (layer F.Cu) (net 4))\u000a  (segment (start -3.81 14.478) (end -1.62 12.288) (width 0.25) (layer F.Cu) (net 4))\u000a  (segment (start -7.189002 3.81) (end -7.034001 3.965001) (width 0.25) (layer B.Cu) (net 4))\u000a  (segment (start -7.034001 3.965001) (end -4.866003 3.965001) (width 0.25) (layer B.Cu) (net 4))\u000a  (segment (start -14.605 3.81) (end -7.189002 3.81) (width 0.25) (layer B.Cu) (net 4))\u000a  (segment (start -0.214999 3.963999) (end -0.214999 6.643001) (width 0.25) (layer F.Cu) (net 4))\u000a  (segment (start -0.214999 6.643001) (end -0.214999 10.549999) (width 0.25) (layer F.Cu) (net 4))\u000a  (segment (start 9.525 6.35) (end 6.858 6.35) (width 0.25) (layer B.Cu) (net 4))\u000a  (via (at 0.381 3.175) (size 0.8) (drill 0.4) (layers F.Cu B.Cu) (net 4))\u000a  (segment (start 3.683 3.175) (end 0.381 3.175) (width 0.25) (layer B.Cu) (net 4))\u000a  (segment (start 6.858 6.35) (end 3.683 3.175) (width 0.25) (layer B.Cu) (net 4))\u000a  (segment (start -0.889 3.175) (end -0.946499 3.232499) (width 0.25) (layer F.Cu) (net 4))\u000a  (segment (start -0.946499 3.232499) (end -0.214999 3.963999) (width 0.25) (layer F.Cu) (net 4))\u000a  (segment (start -2.119999 2.058999) (end -0.946499 3.232499) (width 0.25) (layer F.Cu) (net 4))\u000a  (segment (start 0.381 3.175) (end -0.889 3.175) (width 0.25) (layer F.Cu) (net 4))\u000a  (segment (start -0.039001 2.754999) (end -3.656001 2.754999) (width 0.25) (layer B.Cu) (net 4))\u000a  (segment (start -3.656001 2.754999) (end -4.866003 3.965001) (width 0.25) (layer B.Cu) (net 4))\u000a  (segment (start 0.381 3.175) (end -0.039001 2.754999) (width 0.25) (layer B.Cu) (net 4))\u000a  (segment (start -6.35 -6.985) (end -6.35 2.54) (width 0.25) (layer F.Cu) (net 5))\u000a  (segment (start -14.605 8.89) (end -6.35 8.89) (width 0.25) (layer B.Cu) (net 5))\u000a  (segment (start -6.35 8.89) (end 9.525 8.89) (width 0.25) (layer B.Cu) (net 5) (tstamp 6162F602))\u000a  (via (at -6.35 8.89) (size 0.8) (drill 0.4) (layers F.Cu B.Cu) (net 5))\u000a  (segment (start -6.35 8.001) (end -7.239 7.112) (width 0.25) (layer F.Cu) (net 5))\u000a  (segment (start -6.35 17.145) (end -6.35 8.001) (width 0.25) (layer F.Cu) (net 5))\u000a  (segment (start -7.327002 7.112) (end -8.795001 5.644001) (width 0.25) (layer F.Cu) (net 5))\u000a  (segment (start -8.795001 5.644001) (end -8.795001 3.588001) (width 0.25) (layer F.Cu) (net 5))\u000a  (segment (start -7.239 7.112) (end -7.327002 7.112) (width 0.25) (layer F.Cu) (net 5))\u000a  (segment (start -7.747 2.54) (end -6.35 2.54) (width 0.25) (layer F.Cu) (net 5))\u000a  (segment (start -8.795001 3.588001) (end -7.747 2.54) (width 0.25) (layer F.Cu) (net 5))\u000a  (segment (start 0.255 -0.255) (end 0 0) (width 0.25) (layer F.Cu) (net 6))\u000a  (segment (start 0.255 -3.556) (end 0.255 -2.287) (width 0.25) (layer F.Cu) (net 6))\u000a  (segment (start 0 -2.032) (end 0 0) (width 0.25) (layer F.Cu) (net 6))\u000a  (segment (start 0.255 -2.287) (end 0 -2.032) (width 0.25) (layer F.Cu) (net 6))\u000a  (segment (start -14.605 11.43) (end -8.89 11.43) (width 0.25) (layer F.Cu) (net 7))\u000a  (segment (start -8.89 17.145) (end -8.89 11.43) (width 0.25) (layer F.Cu) (net 7))\u000a  (segment (start 9.525 11.43) (end -8.89 11.43) (width 0.25) (layer B.Cu) (net 7))\u000a  (segment (start -8.89 11.43) (end -14.605 11.43) (width 0.25) (layer B.Cu) (net 7) (tstamp 6162F604))\u000a  (via (at -8.89 11.43) (size 0.8) (drill 0.4) (layers F.Cu B.Cu) (net 7))\u000a  (segment (start 2.54 -4.064) (end 3.048 -3.556) (width 0.25) (layer F.Cu) (net 7))\u000a  (segment (start 3.048 -3.556) (end 3.555 -3.556) (width 0.25) (layer F.Cu) (net 7))\u000a  (segment (start -6.985 -5.08) (end 2.54 -5.08) (width 0.25) (layer B.Cu) (net 7))\u000a  (via (at 2.54 -5.08) (size 0.8) (drill 0.4) (layers F.Cu B.Cu) (net 7))\u000a  (segment (start 2.54 -5.08) (end 2.54 -4.064) (width 0.25) (layer F.Cu) (net 7))\u000a  (segment (start -8.89 -6.985) (end -6.985 -5.08) (width 0.25) (layer B.Cu) (net 7))\u000a  (segment (start -8.89 -3.81) (end -8.89 -6.985) (width 0.25) (layer F.Cu) (net 7))\u000a  (segment (start -9.906 -2.794) (end -8.89 -3.81) (width 0.25) (layer F.Cu) (net 7))\u000a  (segment (start -9.906 6.858) (end -9.906 -2.794) (width 0.25) (layer F.Cu) (net 7))\u000a  (segment (start -8.89 7.874) (end -9.906 6.858) (width 0.25) (layer F.Cu) (net 7))\u000a  (segment (start -8.89 11.43) (end -8.89 7.874) (width 0.25) (layer F.Cu) (net 7))\u000a\u000a)\u000a
p3
S'af3b2c05a04e4c38a2bf8d98f2a9b76d'
p4
(dp5
V614F1BC6
p6
(lp7
Vsheet614F1BC4
p8
aVone-key.sch
p9
asV614F1A10
p10
(lp11
Vsheet614F1A0E
p12
aVone-key.sch
p13
asV614F26AE
p14
(lp15
Vsheet614F26AC
p16
aVone-key.sch
p17
asV614F1C92
p18
(lp19
Vsheet614F1C90
p20
aVone-key.sch
p21
asV61619BDC
p22
(lp23
Vsheet61619BD4
p24
aVone-key.sch
p25
asV614F1A82
p26
(lp27
Vsheet614F1A80
p28
aVone-key.sch
p29
asV614F1B69
p30
(lp31
Vsheet614F1B67
p32
aVone-key.sch
p33
asV614F1CE6
p34
(lp35
Vsheet614F1CE4
p36
aVone-key.sch
p37
asV61619BD8
p38
(lp39
Vsheet61619BD2
p40
aVone-key.sch
p41
asV614F2672
p42
(lp43
Vsheet614F2670
p44
aVone-key.sch
p45
asV614F1AF6
p46
(lp47
Vsheet614F1AF4
p48
aVone-key.sch
p49
asV614F1C27
p50
(lp51
Vsheet614F1C25
p52
aVone-key.sch
p53
asV61619BDA
p54
(lp55
Vsheet61619BD3
p56
aVone-key.sch
p57
asV614F178C
p58
(lp59
V1KEY-MAIN
p60
aVone-key.sch
p61
asV614F1D62
p62
(lp63
Vsheet614F1D60
p64
aVone-key.sch
p65
asV61619BD6
p66
(lp67
Vsheet61619BD1
p68
aVone-key.sch
p69
as(lp70
VNet-(D1-Pad2)
p71
a(lp72
g60
a(lp73
g61
atp74
tp75
Rp76
.